
./af_xdp_user:     file format elf64-x86-64


Disassembly of section .init:

0000000000402000 <_init>:
  402000:	f3 0f 1e fa          	endbr64 
  402004:	48 83 ec 08          	sub    $0x8,%rsp
  402008:	48 8b 05 e9 0f 02 00 	mov    0x20fe9(%rip),%rax        # 422ff8 <__gmon_start__>
  40200f:	48 85 c0             	test   %rax,%rax
  402012:	74 02                	je     402016 <_init+0x16>
  402014:	ff d0                	callq  *%rax
  402016:	48 83 c4 08          	add    $0x8,%rsp
  40201a:	c3                   	retq   

Disassembly of section .plt:

0000000000402020 <.plt>:
  402020:	ff 35 e2 0f 02 00    	pushq  0x20fe2(%rip)        # 423008 <_GLOBAL_OFFSET_TABLE_+0x8>
  402026:	ff 25 e4 0f 02 00    	jmpq   *0x20fe4(%rip)        # 423010 <_GLOBAL_OFFSET_TABLE_+0x10>
  40202c:	0f 1f 40 00          	nopl   0x0(%rax)

0000000000402030 <gelf_getehdr@plt>:
  402030:	ff 25 e2 0f 02 00    	jmpq   *0x20fe2(%rip)        # 423018 <gelf_getehdr@ELFUTILS_1.0>
  402036:	68 00 00 00 00       	pushq  $0x0
  40203b:	e9 e0 ff ff ff       	jmpq   402020 <.plt>

0000000000402040 <free@plt>:
  402040:	ff 25 da 0f 02 00    	jmpq   *0x20fda(%rip)        # 423020 <free@GLIBC_2.2.5>
  402046:	68 01 00 00 00       	pushq  $0x1
  40204b:	e9 d0 ff ff ff       	jmpq   402020 <.plt>

0000000000402050 <recv@plt>:
  402050:	ff 25 d2 0f 02 00    	jmpq   *0x20fd2(%rip)        # 423028 <recv@GLIBC_2.2.5>
  402056:	68 02 00 00 00       	pushq  $0x2
  40205b:	e9 c0 ff ff ff       	jmpq   402020 <.plt>

0000000000402060 <putchar@plt>:
  402060:	ff 25 ca 0f 02 00    	jmpq   *0x20fca(%rip)        # 423030 <putchar@GLIBC_2.2.5>
  402066:	68 03 00 00 00       	pushq  $0x3
  40206b:	e9 b0 ff ff ff       	jmpq   402020 <.plt>

0000000000402070 <pthread_create@plt>:
  402070:	ff 25 c2 0f 02 00    	jmpq   *0x20fc2(%rip)        # 423038 <pthread_create@GLIBC_2.2.5>
  402076:	68 04 00 00 00       	pushq  $0x4
  40207b:	e9 a0 ff ff ff       	jmpq   402020 <.plt>

0000000000402080 <gelf_getshdr@plt>:
  402080:	ff 25 ba 0f 02 00    	jmpq   *0x20fba(%rip)        # 423040 <gelf_getshdr@ELFUTILS_1.0>
  402086:	68 05 00 00 00       	pushq  $0x5
  40208b:	e9 90 ff ff ff       	jmpq   402020 <.plt>

0000000000402090 <__errno_location@plt>:
  402090:	ff 25 b2 0f 02 00    	jmpq   *0x20fb2(%rip)        # 423048 <__errno_location@GLIBC_2.2.5>
  402096:	68 06 00 00 00       	pushq  $0x6
  40209b:	e9 80 ff ff ff       	jmpq   402020 <.plt>

00000000004020a0 <unlink@plt>:
  4020a0:	ff 25 aa 0f 02 00    	jmpq   *0x20faa(%rip)        # 423050 <unlink@GLIBC_2.2.5>
  4020a6:	68 07 00 00 00       	pushq  $0x7
  4020ab:	e9 70 ff ff ff       	jmpq   402020 <.plt>

00000000004020b0 <strncpy@plt>:
  4020b0:	ff 25 a2 0f 02 00    	jmpq   *0x20fa2(%rip)        # 423058 <strncpy@GLIBC_2.2.5>
  4020b6:	68 08 00 00 00       	pushq  $0x8
  4020bb:	e9 60 ff ff ff       	jmpq   402020 <.plt>

00000000004020c0 <elf_version@plt>:
  4020c0:	ff 25 9a 0f 02 00    	jmpq   *0x20f9a(%rip)        # 423060 <elf_version@ELFUTILS_1.0>
  4020c6:	68 09 00 00 00       	pushq  $0x9
  4020cb:	e9 50 ff ff ff       	jmpq   402020 <.plt>

00000000004020d0 <strncmp@plt>:
  4020d0:	ff 25 92 0f 02 00    	jmpq   *0x20f92(%rip)        # 423068 <strncmp@GLIBC_2.2.5>
  4020d6:	68 0a 00 00 00       	pushq  $0xa
  4020db:	e9 40 ff ff ff       	jmpq   402020 <.plt>

00000000004020e0 <strcpy@plt>:
  4020e0:	ff 25 8a 0f 02 00    	jmpq   *0x20f8a(%rip)        # 423070 <strcpy@GLIBC_2.2.5>
  4020e6:	68 0b 00 00 00       	pushq  $0xb
  4020eb:	e9 30 ff ff ff       	jmpq   402020 <.plt>

00000000004020f0 <__isoc99_fscanf@plt>:
  4020f0:	ff 25 82 0f 02 00    	jmpq   *0x20f82(%rip)        # 423078 <__isoc99_fscanf@GLIBC_2.7>
  4020f6:	68 0c 00 00 00       	pushq  $0xc
  4020fb:	e9 20 ff ff ff       	jmpq   402020 <.plt>

0000000000402100 <mkdir@plt>:
  402100:	ff 25 7a 0f 02 00    	jmpq   *0x20f7a(%rip)        # 423080 <mkdir@GLIBC_2.2.5>
  402106:	68 0d 00 00 00       	pushq  $0xd
  40210b:	e9 10 ff ff ff       	jmpq   402020 <.plt>

0000000000402110 <puts@plt>:
  402110:	ff 25 72 0f 02 00    	jmpq   *0x20f72(%rip)        # 423088 <puts@GLIBC_2.2.5>
  402116:	68 0e 00 00 00       	pushq  $0xe
  40211b:	e9 00 ff ff ff       	jmpq   402020 <.plt>

0000000000402120 <qsort@plt>:
  402120:	ff 25 6a 0f 02 00    	jmpq   *0x20f6a(%rip)        # 423090 <qsort@GLIBC_2.2.5>
  402126:	68 0f 00 00 00       	pushq  $0xf
  40212b:	e9 f0 fe ff ff       	jmpq   402020 <.plt>

0000000000402130 <fread@plt>:
  402130:	ff 25 62 0f 02 00    	jmpq   *0x20f62(%rip)        # 423098 <fread@GLIBC_2.2.5>
  402136:	68 10 00 00 00       	pushq  $0x10
  40213b:	e9 e0 fe ff ff       	jmpq   402020 <.plt>

0000000000402140 <reallocarray@plt>:
  402140:	ff 25 5a 0f 02 00    	jmpq   *0x20f5a(%rip)        # 4230a0 <reallocarray@GLIBC_2.26>
  402146:	68 11 00 00 00       	pushq  $0x11
  40214b:	e9 d0 fe ff ff       	jmpq   402020 <.plt>

0000000000402150 <setsockopt@plt>:
  402150:	ff 25 52 0f 02 00    	jmpq   *0x20f52(%rip)        # 4230a8 <setsockopt@GLIBC_2.2.5>
  402156:	68 12 00 00 00       	pushq  $0x12
  40215b:	e9 c0 fe ff ff       	jmpq   402020 <.plt>

0000000000402160 <__xpg_strerror_r@plt>:
  402160:	ff 25 4a 0f 02 00    	jmpq   *0x20f4a(%rip)        # 4230b0 <__xpg_strerror_r@GLIBC_2.3.4>
  402166:	68 13 00 00 00       	pushq  $0x13
  40216b:	e9 b0 fe ff ff       	jmpq   402020 <.plt>

0000000000402170 <clock_gettime@plt>:
  402170:	ff 25 42 0f 02 00    	jmpq   *0x20f42(%rip)        # 4230b8 <clock_gettime@GLIBC_2.17>
  402176:	68 14 00 00 00       	pushq  $0x14
  40217b:	e9 a0 fe ff ff       	jmpq   402020 <.plt>

0000000000402180 <dup3@plt>:
  402180:	ff 25 3a 0f 02 00    	jmpq   *0x20f3a(%rip)        # 4230c0 <dup3@GLIBC_2.9>
  402186:	68 15 00 00 00       	pushq  $0x15
  40218b:	e9 90 fe ff ff       	jmpq   402020 <.plt>

0000000000402190 <fclose@plt>:
  402190:	ff 25 32 0f 02 00    	jmpq   *0x20f32(%rip)        # 4230c8 <fclose@GLIBC_2.2.5>
  402196:	68 16 00 00 00       	pushq  $0x16
  40219b:	e9 80 fe ff ff       	jmpq   402020 <.plt>

00000000004021a0 <__xstat64@plt>:
  4021a0:	ff 25 2a 0f 02 00    	jmpq   *0x20f2a(%rip)        # 4230d0 <__xstat64@GLIBC_2.2.5>
  4021a6:	68 17 00 00 00       	pushq  $0x17
  4021ab:	e9 70 fe ff ff       	jmpq   402020 <.plt>

00000000004021b0 <rmdir@plt>:
  4021b0:	ff 25 22 0f 02 00    	jmpq   *0x20f22(%rip)        # 4230d8 <rmdir@GLIBC_2.2.5>
  4021b6:	68 18 00 00 00       	pushq  $0x18
  4021bb:	e9 60 fe ff ff       	jmpq   402020 <.plt>

00000000004021c0 <strlen@plt>:
  4021c0:	ff 25 1a 0f 02 00    	jmpq   *0x20f1a(%rip)        # 4230e0 <strlen@GLIBC_2.2.5>
  4021c6:	68 19 00 00 00       	pushq  $0x19
  4021cb:	e9 50 fe ff ff       	jmpq   402020 <.plt>

00000000004021d0 <getopt_long@plt>:
  4021d0:	ff 25 12 0f 02 00    	jmpq   *0x20f12(%rip)        # 4230e8 <getopt_long@GLIBC_2.2.5>
  4021d6:	68 1a 00 00 00       	pushq  $0x1a
  4021db:	e9 40 fe ff ff       	jmpq   402020 <.plt>

00000000004021e0 <send@plt>:
  4021e0:	ff 25 0a 0f 02 00    	jmpq   *0x20f0a(%rip)        # 4230f0 <send@GLIBC_2.2.5>
  4021e6:	68 1b 00 00 00       	pushq  $0x1b
  4021eb:	e9 30 fe ff ff       	jmpq   402020 <.plt>

00000000004021f0 <strchr@plt>:
  4021f0:	ff 25 02 0f 02 00    	jmpq   *0x20f02(%rip)        # 4230f8 <strchr@GLIBC_2.2.5>
  4021f6:	68 1c 00 00 00       	pushq  $0x1c
  4021fb:	e9 20 fe ff ff       	jmpq   402020 <.plt>

0000000000402200 <printf@plt>:
  402200:	ff 25 fa 0e 02 00    	jmpq   *0x20efa(%rip)        # 423100 <printf@GLIBC_2.2.5>
  402206:	68 1d 00 00 00       	pushq  $0x1d
  40220b:	e9 10 fe ff ff       	jmpq   402020 <.plt>

0000000000402210 <gelf_getsym@plt>:
  402210:	ff 25 f2 0e 02 00    	jmpq   *0x20ef2(%rip)        # 423108 <gelf_getsym@ELFUTILS_1.0>
  402216:	68 1e 00 00 00       	pushq  $0x1e
  40221b:	e9 00 fe ff ff       	jmpq   402020 <.plt>

0000000000402220 <snprintf@plt>:
  402220:	ff 25 ea 0e 02 00    	jmpq   *0x20eea(%rip)        # 423110 <snprintf@GLIBC_2.2.5>
  402226:	68 1f 00 00 00       	pushq  $0x1f
  40222b:	e9 f0 fd ff ff       	jmpq   402020 <.plt>

0000000000402230 <elf_strptr@plt>:
  402230:	ff 25 e2 0e 02 00    	jmpq   *0x20ee2(%rip)        # 423118 <elf_strptr@ELFUTILS_1.0>
  402236:	68 20 00 00 00       	pushq  $0x20
  40223b:	e9 e0 fd ff ff       	jmpq   402020 <.plt>

0000000000402240 <uname@plt>:
  402240:	ff 25 da 0e 02 00    	jmpq   *0x20eda(%rip)        # 423120 <uname@GLIBC_2.2.5>
  402246:	68 21 00 00 00       	pushq  $0x21
  40224b:	e9 d0 fd ff ff       	jmpq   402020 <.plt>

0000000000402250 <dirname@plt>:
  402250:	ff 25 d2 0e 02 00    	jmpq   *0x20ed2(%rip)        # 423128 <dirname@GLIBC_2.2.5>
  402256:	68 22 00 00 00       	pushq  $0x22
  40225b:	e9 c0 fd ff ff       	jmpq   402020 <.plt>

0000000000402260 <__assert_fail@plt>:
  402260:	ff 25 ca 0e 02 00    	jmpq   *0x20eca(%rip)        # 423130 <__assert_fail@GLIBC_2.2.5>
  402266:	68 23 00 00 00       	pushq  $0x23
  40226b:	e9 b0 fd ff ff       	jmpq   402020 <.plt>

0000000000402270 <statfs64@plt>:
  402270:	ff 25 c2 0e 02 00    	jmpq   *0x20ec2(%rip)        # 423138 <statfs64@GLIBC_2.2.5>
  402276:	68 24 00 00 00       	pushq  $0x24
  40227b:	e9 a0 fd ff ff       	jmpq   402020 <.plt>

0000000000402280 <memset@plt>:
  402280:	ff 25 ba 0e 02 00    	jmpq   *0x20eba(%rip)        # 423140 <memset@GLIBC_2.2.5>
  402286:	68 25 00 00 00       	pushq  $0x25
  40228b:	e9 90 fd ff ff       	jmpq   402020 <.plt>

0000000000402290 <ioctl@plt>:
  402290:	ff 25 b2 0e 02 00    	jmpq   *0x20eb2(%rip)        # 423148 <ioctl@GLIBC_2.2.5>
  402296:	68 26 00 00 00       	pushq  $0x26
  40229b:	e9 80 fd ff ff       	jmpq   402020 <.plt>

00000000004022a0 <sendto@plt>:
  4022a0:	ff 25 aa 0e 02 00    	jmpq   *0x20eaa(%rip)        # 423150 <sendto@GLIBC_2.2.5>
  4022a6:	68 27 00 00 00       	pushq  $0x27
  4022ab:	e9 70 fd ff ff       	jmpq   402020 <.plt>

00000000004022b0 <strncat@plt>:
  4022b0:	ff 25 a2 0e 02 00    	jmpq   *0x20ea2(%rip)        # 423158 <strncat@GLIBC_2.2.5>
  4022b6:	68 28 00 00 00       	pushq  $0x28
  4022bb:	e9 60 fd ff ff       	jmpq   402020 <.plt>

00000000004022c0 <close@plt>:
  4022c0:	ff 25 9a 0e 02 00    	jmpq   *0x20e9a(%rip)        # 423160 <close@GLIBC_2.2.5>
  4022c6:	68 29 00 00 00       	pushq  $0x29
  4022cb:	e9 50 fd ff ff       	jmpq   402020 <.plt>

00000000004022d0 <epoll_ctl@plt>:
  4022d0:	ff 25 92 0e 02 00    	jmpq   *0x20e92(%rip)        # 423168 <epoll_ctl@GLIBC_2.3.2>
  4022d6:	68 2a 00 00 00       	pushq  $0x2a
  4022db:	e9 40 fd ff ff       	jmpq   402020 <.plt>

00000000004022e0 <elf_getdata@plt>:
  4022e0:	ff 25 8a 0e 02 00    	jmpq   *0x20e8a(%rip)        # 423170 <elf_getdata@ELFUTILS_1.0>
  4022e6:	68 2b 00 00 00       	pushq  $0x2b
  4022eb:	e9 30 fd ff ff       	jmpq   402020 <.plt>

00000000004022f0 <read@plt>:
  4022f0:	ff 25 82 0e 02 00    	jmpq   *0x20e82(%rip)        # 423178 <read@GLIBC_2.2.5>
  4022f6:	68 2c 00 00 00       	pushq  $0x2c
  4022fb:	e9 20 fd ff ff       	jmpq   402020 <.plt>

0000000000402300 <getsockopt@plt>:
  402300:	ff 25 7a 0e 02 00    	jmpq   *0x20e7a(%rip)        # 423180 <getsockopt@GLIBC_2.2.5>
  402306:	68 2d 00 00 00       	pushq  $0x2d
  40230b:	e9 10 fd ff ff       	jmpq   402020 <.plt>

0000000000402310 <calloc@plt>:
  402310:	ff 25 72 0e 02 00    	jmpq   *0x20e72(%rip)        # 423188 <calloc@GLIBC_2.2.5>
  402316:	68 2e 00 00 00       	pushq  $0x2e
  40231b:	e9 00 fd ff ff       	jmpq   402020 <.plt>

0000000000402320 <strcmp@plt>:
  402320:	ff 25 6a 0e 02 00    	jmpq   *0x20e6a(%rip)        # 423190 <strcmp@GLIBC_2.2.5>
  402326:	68 2f 00 00 00       	pushq  $0x2f
  40232b:	e9 f0 fc ff ff       	jmpq   402020 <.plt>

0000000000402330 <signal@plt>:
  402330:	ff 25 62 0e 02 00    	jmpq   *0x20e62(%rip)        # 423198 <signal@GLIBC_2.2.5>
  402336:	68 30 00 00 00       	pushq  $0x30
  40233b:	e9 e0 fc ff ff       	jmpq   402020 <.plt>

0000000000402340 <fprintf@plt>:
  402340:	ff 25 5a 0e 02 00    	jmpq   *0x20e5a(%rip)        # 4231a0 <fprintf@GLIBC_2.2.5>
  402346:	68 31 00 00 00       	pushq  $0x31
  40234b:	e9 d0 fc ff ff       	jmpq   402020 <.plt>

0000000000402350 <syscall@plt>:
  402350:	ff 25 52 0e 02 00    	jmpq   *0x20e52(%rip)        # 4231a8 <syscall@GLIBC_2.2.5>
  402356:	68 32 00 00 00       	pushq  $0x32
  40235b:	e9 c0 fc ff ff       	jmpq   402020 <.plt>

0000000000402360 <if_nametoindex@plt>:
  402360:	ff 25 4a 0e 02 00    	jmpq   *0x20e4a(%rip)        # 4231b0 <if_nametoindex@GLIBC_2.2.5>
  402366:	68 33 00 00 00       	pushq  $0x33
  40236b:	e9 b0 fc ff ff       	jmpq   402020 <.plt>

0000000000402370 <fopen64@plt>:
  402370:	ff 25 42 0e 02 00    	jmpq   *0x20e42(%rip)        # 4231b8 <fopen64@GLIBC_2.2.5>
  402376:	68 34 00 00 00       	pushq  $0x34
  40237b:	e9 a0 fc ff ff       	jmpq   402020 <.plt>

0000000000402380 <strtol@plt>:
  402380:	ff 25 3a 0e 02 00    	jmpq   *0x20e3a(%rip)        # 4231c0 <strtol@GLIBC_2.2.5>
  402386:	68 35 00 00 00       	pushq  $0x35
  40238b:	e9 90 fc ff ff       	jmpq   402020 <.plt>

0000000000402390 <elf_end@plt>:
  402390:	ff 25 32 0e 02 00    	jmpq   *0x20e32(%rip)        # 4231c8 <elf_end@ELFUTILS_1.0>
  402396:	68 36 00 00 00       	pushq  $0x36
  40239b:	e9 80 fc ff ff       	jmpq   402020 <.plt>

00000000004023a0 <memcpy@plt>:
  4023a0:	ff 25 2a 0e 02 00    	jmpq   *0x20e2a(%rip)        # 4231d0 <memcpy@GLIBC_2.14>
  4023a6:	68 37 00 00 00       	pushq  $0x37
  4023ab:	e9 70 fc ff ff       	jmpq   402020 <.plt>

00000000004023b0 <__xpg_basename@plt>:
  4023b0:	ff 25 22 0e 02 00    	jmpq   *0x20e22(%rip)        # 4231d8 <__xpg_basename@GLIBC_2.2.5>
  4023b6:	68 38 00 00 00       	pushq  $0x38
  4023bb:	e9 60 fc ff ff       	jmpq   402020 <.plt>

00000000004023c0 <time@plt>:
  4023c0:	ff 25 1a 0e 02 00    	jmpq   *0x20e1a(%rip)        # 4231e0 <time@GLIBC_2.2.5>
  4023c6:	68 39 00 00 00       	pushq  $0x39
  4023cb:	e9 50 fc ff ff       	jmpq   402020 <.plt>

00000000004023d0 <mmap64@plt>:
  4023d0:	ff 25 12 0e 02 00    	jmpq   *0x20e12(%rip)        # 4231e8 <mmap64@GLIBC_2.2.5>
  4023d6:	68 3a 00 00 00       	pushq  $0x3a
  4023db:	e9 40 fc ff ff       	jmpq   402020 <.plt>

00000000004023e0 <malloc@plt>:
  4023e0:	ff 25 0a 0e 02 00    	jmpq   *0x20e0a(%rip)        # 4231f0 <malloc@GLIBC_2.2.5>
  4023e6:	68 3b 00 00 00       	pushq  $0x3b
  4023eb:	e9 30 fc ff ff       	jmpq   402020 <.plt>

00000000004023f0 <__isoc99_sscanf@plt>:
  4023f0:	ff 25 02 0e 02 00    	jmpq   *0x20e02(%rip)        # 4231f8 <__isoc99_sscanf@GLIBC_2.7>
  4023f6:	68 3c 00 00 00       	pushq  $0x3c
  4023fb:	e9 20 fc ff ff       	jmpq   402020 <.plt>

0000000000402400 <elf_rawdata@plt>:
  402400:	ff 25 fa 0d 02 00    	jmpq   *0x20dfa(%rip)        # 423200 <elf_rawdata@ELFUTILS_1.0>
  402406:	68 3d 00 00 00       	pushq  $0x3d
  40240b:	e9 10 fc ff ff       	jmpq   402020 <.plt>

0000000000402410 <setrlimit@plt>:
  402410:	ff 25 f2 0d 02 00    	jmpq   *0x20df2(%rip)        # 423208 <setrlimit@GLIBC_2.2.5>
  402416:	68 3e 00 00 00       	pushq  $0x3e
  40241b:	e9 00 fc ff ff       	jmpq   402020 <.plt>

0000000000402420 <if_indextoname@plt>:
  402420:	ff 25 ea 0d 02 00    	jmpq   *0x20dea(%rip)        # 423210 <if_indextoname@GLIBC_2.2.5>
  402426:	68 3f 00 00 00       	pushq  $0x3f
  40242b:	e9 f0 fb ff ff       	jmpq   402020 <.plt>

0000000000402430 <elf_begin@plt>:
  402430:	ff 25 e2 0d 02 00    	jmpq   *0x20de2(%rip)        # 423218 <elf_begin@ELFUTILS_1.0>
  402436:	68 40 00 00 00       	pushq  $0x40
  40243b:	e9 e0 fb ff ff       	jmpq   402020 <.plt>

0000000000402440 <elf_memory@plt>:
  402440:	ff 25 da 0d 02 00    	jmpq   *0x20dda(%rip)        # 423220 <elf_memory@ELFUTILS_1.0>
  402446:	68 41 00 00 00       	pushq  $0x41
  40244b:	e9 d0 fb ff ff       	jmpq   402020 <.plt>

0000000000402450 <realloc@plt>:
  402450:	ff 25 d2 0d 02 00    	jmpq   *0x20dd2(%rip)        # 423228 <realloc@GLIBC_2.2.5>
  402456:	68 42 00 00 00       	pushq  $0x42
  40245b:	e9 c0 fb ff ff       	jmpq   402020 <.plt>

0000000000402460 <munmap@plt>:
  402460:	ff 25 ca 0d 02 00    	jmpq   *0x20dca(%rip)        # 423230 <munmap@GLIBC_2.2.5>
  402466:	68 43 00 00 00       	pushq  $0x43
  40246b:	e9 b0 fb ff ff       	jmpq   402020 <.plt>

0000000000402470 <setlocale@plt>:
  402470:	ff 25 c2 0d 02 00    	jmpq   *0x20dc2(%rip)        # 423238 <setlocale@GLIBC_2.2.5>
  402476:	68 44 00 00 00       	pushq  $0x44
  40247b:	e9 a0 fb ff ff       	jmpq   402020 <.plt>

0000000000402480 <epoll_wait@plt>:
  402480:	ff 25 ba 0d 02 00    	jmpq   *0x20dba(%rip)        # 423240 <epoll_wait@GLIBC_2.3.2>
  402486:	68 45 00 00 00       	pushq  $0x45
  40248b:	e9 90 fb ff ff       	jmpq   402020 <.plt>

0000000000402490 <poll@plt>:
  402490:	ff 25 b2 0d 02 00    	jmpq   *0x20db2(%rip)        # 423248 <poll@GLIBC_2.2.5>
  402496:	68 46 00 00 00       	pushq  $0x46
  40249b:	e9 80 fb ff ff       	jmpq   402020 <.plt>

00000000004024a0 <bind@plt>:
  4024a0:	ff 25 aa 0d 02 00    	jmpq   *0x20daa(%rip)        # 423250 <bind@GLIBC_2.2.5>
  4024a6:	68 47 00 00 00       	pushq  $0x47
  4024ab:	e9 70 fb ff ff       	jmpq   402020 <.plt>

00000000004024b0 <open64@plt>:
  4024b0:	ff 25 a2 0d 02 00    	jmpq   *0x20da2(%rip)        # 423258 <open64@GLIBC_2.2.5>
  4024b6:	68 48 00 00 00       	pushq  $0x48
  4024bb:	e9 60 fb ff ff       	jmpq   402020 <.plt>

00000000004024c0 <memmove@plt>:
  4024c0:	ff 25 9a 0d 02 00    	jmpq   *0x20d9a(%rip)        # 423260 <memmove@GLIBC_2.2.5>
  4024c6:	68 49 00 00 00       	pushq  $0x49
  4024cb:	e9 50 fb ff ff       	jmpq   402020 <.plt>

00000000004024d0 <elf_nextscn@plt>:
  4024d0:	ff 25 92 0d 02 00    	jmpq   *0x20d92(%rip)        # 423268 <elf_nextscn@ELFUTILS_1.0>
  4024d6:	68 4a 00 00 00       	pushq  $0x4a
  4024db:	e9 40 fb ff ff       	jmpq   402020 <.plt>

00000000004024e0 <access@plt>:
  4024e0:	ff 25 8a 0d 02 00    	jmpq   *0x20d8a(%rip)        # 423270 <access@GLIBC_2.2.5>
  4024e6:	68 4b 00 00 00       	pushq  $0x4b
  4024eb:	e9 30 fb ff ff       	jmpq   402020 <.plt>

00000000004024f0 <gelf_getrel@plt>:
  4024f0:	ff 25 82 0d 02 00    	jmpq   *0x20d82(%rip)        # 423278 <gelf_getrel@ELFUTILS_1.0>
  4024f6:	68 4c 00 00 00       	pushq  $0x4c
  4024fb:	e9 20 fb ff ff       	jmpq   402020 <.plt>

0000000000402500 <vfprintf@plt>:
  402500:	ff 25 7a 0d 02 00    	jmpq   *0x20d7a(%rip)        # 423280 <vfprintf@GLIBC_2.2.5>
  402506:	68 4d 00 00 00       	pushq  $0x4d
  40250b:	e9 10 fb ff ff       	jmpq   402020 <.plt>

0000000000402510 <getsockname@plt>:
  402510:	ff 25 72 0d 02 00    	jmpq   *0x20d72(%rip)        # 423288 <getsockname@GLIBC_2.2.5>
  402516:	68 4e 00 00 00       	pushq  $0x4e
  40251b:	e9 00 fb ff ff       	jmpq   402020 <.plt>

0000000000402520 <atoi@plt>:
  402520:	ff 25 6a 0d 02 00    	jmpq   *0x20d6a(%rip)        # 423290 <atoi@GLIBC_2.2.5>
  402526:	68 4f 00 00 00       	pushq  $0x4f
  40252b:	e9 f0 fa ff ff       	jmpq   402020 <.plt>

0000000000402530 <getpagesize@plt>:
  402530:	ff 25 62 0d 02 00    	jmpq   *0x20d62(%rip)        # 423298 <getpagesize@GLIBC_2.2.5>
  402536:	68 50 00 00 00       	pushq  $0x50
  40253b:	e9 e0 fa ff ff       	jmpq   402020 <.plt>

0000000000402540 <exit@plt>:
  402540:	ff 25 5a 0d 02 00    	jmpq   *0x20d5a(%rip)        # 4232a0 <exit@GLIBC_2.2.5>
  402546:	68 51 00 00 00       	pushq  $0x51
  40254b:	e9 d0 fa ff ff       	jmpq   402020 <.plt>

0000000000402550 <fwrite@plt>:
  402550:	ff 25 52 0d 02 00    	jmpq   *0x20d52(%rip)        # 4232a8 <fwrite@GLIBC_2.2.5>
  402556:	68 52 00 00 00       	pushq  $0x52
  40255b:	e9 c0 fa ff ff       	jmpq   402020 <.plt>

0000000000402560 <elf_getscn@plt>:
  402560:	ff 25 4a 0d 02 00    	jmpq   *0x20d4a(%rip)        # 4232b0 <elf_getscn@ELFUTILS_1.0>
  402566:	68 53 00 00 00       	pushq  $0x53
  40256b:	e9 b0 fa ff ff       	jmpq   402020 <.plt>

0000000000402570 <posix_memalign@plt>:
  402570:	ff 25 42 0d 02 00    	jmpq   *0x20d42(%rip)        # 4232b8 <posix_memalign@GLIBC_2.2.5>
  402576:	68 54 00 00 00       	pushq  $0x54
  40257b:	e9 a0 fa ff ff       	jmpq   402020 <.plt>

0000000000402580 <strdup@plt>:
  402580:	ff 25 3a 0d 02 00    	jmpq   *0x20d3a(%rip)        # 4232c0 <strdup@GLIBC_2.2.5>
  402586:	68 55 00 00 00       	pushq  $0x55
  40258b:	e9 90 fa ff ff       	jmpq   402020 <.plt>

0000000000402590 <strerror@plt>:
  402590:	ff 25 32 0d 02 00    	jmpq   *0x20d32(%rip)        # 4232c8 <strerror@GLIBC_2.2.5>
  402596:	68 56 00 00 00       	pushq  $0x56
  40259b:	e9 80 fa ff ff       	jmpq   402020 <.plt>

00000000004025a0 <sleep@plt>:
  4025a0:	ff 25 2a 0d 02 00    	jmpq   *0x20d2a(%rip)        # 4232d0 <sleep@GLIBC_2.2.5>
  4025a6:	68 57 00 00 00       	pushq  $0x57
  4025ab:	e9 70 fa ff ff       	jmpq   402020 <.plt>

00000000004025b0 <epoll_create1@plt>:
  4025b0:	ff 25 22 0d 02 00    	jmpq   *0x20d22(%rip)        # 4232d8 <epoll_create1@GLIBC_2.9>
  4025b6:	68 58 00 00 00       	pushq  $0x58
  4025bb:	e9 60 fa ff ff       	jmpq   402020 <.plt>

00000000004025c0 <strstr@plt>:
  4025c0:	ff 25 1a 0d 02 00    	jmpq   *0x20d1a(%rip)        # 4232e0 <strstr@GLIBC_2.2.5>
  4025c6:	68 59 00 00 00       	pushq  $0x59
  4025cb:	e9 50 fa ff ff       	jmpq   402020 <.plt>

00000000004025d0 <socket@plt>:
  4025d0:	ff 25 12 0d 02 00    	jmpq   *0x20d12(%rip)        # 4232e8 <socket@GLIBC_2.2.5>
  4025d6:	68 5a 00 00 00       	pushq  $0x5a
  4025db:	e9 40 fa ff ff       	jmpq   402020 <.plt>

Disassembly of section .text:

00000000004025e0 <btf__finalize_data.cold>:
  4025e0:	8b 04 25 04 00 00 00 	mov    0x4,%eax
  4025e7:	0f 0b                	ud2    

00000000004025e9 <.annobin_init.c.exit>:
  4025e9:	0f 1f 80 00 00 00 00 	nopl   0x0(%rax)

00000000004025f0 <_start>:
  4025f0:	f3 0f 1e fa          	endbr64 
  4025f4:	31 ed                	xor    %ebp,%ebp
  4025f6:	49 89 d1             	mov    %rdx,%r9
  4025f9:	5e                   	pop    %rsi
  4025fa:	48 89 e2             	mov    %rsp,%rdx
  4025fd:	48 83 e4 f0          	and    $0xfffffffffffffff0,%rsp
  402601:	50                   	push   %rax
  402602:	54                   	push   %rsp
  402603:	49 c7 c0 80 60 41 00 	mov    $0x416080,%r8
  40260a:	48 c7 c1 10 60 41 00 	mov    $0x416010,%rcx
  402611:	48 c7 c7 b7 4a 40 00 	mov    $0x404ab7,%rdi
  402618:	ff 15 d2 09 02 00    	callq  *0x209d2(%rip)        # 422ff0 <__libc_start_main@GLIBC_2.2.5>
  40261e:	f4                   	hlt    

000000000040261f <.annobin_init.c>:
  40261f:	90                   	nop

0000000000402620 <_dl_relocate_static_pie>:
  402620:	f3 0f 1e fa          	endbr64 
  402624:	c3                   	retq   

0000000000402625 <.annobin_static_reloc.c_end>:
  402625:	66 2e 0f 1f 84 00 00 	nopw   %cs:0x0(%rax,%rax,1)
  40262c:	00 00 00 
  40262f:	90                   	nop

0000000000402630 <deregister_tm_clones>:
  402630:	b8 e8 33 42 00       	mov    $0x4233e8,%eax
  402635:	48 3d e8 33 42 00    	cmp    $0x4233e8,%rax
  40263b:	74 13                	je     402650 <deregister_tm_clones+0x20>
  40263d:	b8 00 00 00 00       	mov    $0x0,%eax
  402642:	48 85 c0             	test   %rax,%rax
  402645:	74 09                	je     402650 <deregister_tm_clones+0x20>
  402647:	bf e8 33 42 00       	mov    $0x4233e8,%edi
  40264c:	ff e0                	jmpq   *%rax
  40264e:	66 90                	xchg   %ax,%ax
  402650:	c3                   	retq   
  402651:	66 66 2e 0f 1f 84 00 	data16 nopw %cs:0x0(%rax,%rax,1)
  402658:	00 00 00 00 
  40265c:	0f 1f 40 00          	nopl   0x0(%rax)

0000000000402660 <register_tm_clones>:
  402660:	be e8 33 42 00       	mov    $0x4233e8,%esi
  402665:	48 81 ee e8 33 42 00 	sub    $0x4233e8,%rsi
  40266c:	48 89 f0             	mov    %rsi,%rax
  40266f:	48 c1 ee 3f          	shr    $0x3f,%rsi
  402673:	48 c1 f8 03          	sar    $0x3,%rax
  402677:	48 01 c6             	add    %rax,%rsi
  40267a:	48 d1 fe             	sar    %rsi
  40267d:	74 11                	je     402690 <register_tm_clones+0x30>
  40267f:	b8 00 00 00 00       	mov    $0x0,%eax
  402684:	48 85 c0             	test   %rax,%rax
  402687:	74 07                	je     402690 <register_tm_clones+0x30>
  402689:	bf e8 33 42 00       	mov    $0x4233e8,%edi
  40268e:	ff e0                	jmpq   *%rax
  402690:	c3                   	retq   
  402691:	66 66 2e 0f 1f 84 00 	data16 nopw %cs:0x0(%rax,%rax,1)
  402698:	00 00 00 00 
  40269c:	0f 1f 40 00          	nopl   0x0(%rax)

00000000004026a0 <__do_global_dtors_aux>:
  4026a0:	f3 0f 1e fa          	endbr64 
  4026a4:	80 3d 7d 0d 02 00 00 	cmpb   $0x0,0x20d7d(%rip)        # 423428 <completed.7380>
  4026ab:	75 13                	jne    4026c0 <__do_global_dtors_aux+0x20>
  4026ad:	55                   	push   %rbp
  4026ae:	48 89 e5             	mov    %rsp,%rbp
  4026b1:	e8 7a ff ff ff       	callq  402630 <deregister_tm_clones>
  4026b6:	c6 05 6b 0d 02 00 01 	movb   $0x1,0x20d6b(%rip)        # 423428 <completed.7380>
  4026bd:	5d                   	pop    %rbp
  4026be:	c3                   	retq   
  4026bf:	90                   	nop
  4026c0:	c3                   	retq   
  4026c1:	66 66 2e 0f 1f 84 00 	data16 nopw %cs:0x0(%rax,%rax,1)
  4026c8:	00 00 00 00 
  4026cc:	0f 1f 40 00          	nopl   0x0(%rax)

00000000004026d0 <frame_dummy>:
  4026d0:	f3 0f 1e fa          	endbr64 
  4026d4:	eb 8a                	jmp    402660 <register_tm_clones>

00000000004026d6 <_print_options>:
  4026d6:	55                   	push   %rbp
  4026d7:	48 89 e5             	mov    %rsp,%rbp
  4026da:	48 83 ec 40          	sub    $0x40,%rsp
  4026de:	48 89 7d c8          	mov    %rdi,-0x38(%rbp)
  4026e2:	89 f0                	mov    %esi,%eax
  4026e4:	88 45 c4             	mov    %al,-0x3c(%rbp)
  4026e7:	c7 45 fc 00 00 00 00 	movl   $0x0,-0x4(%rbp)
  4026ee:	e9 a7 01 00 00       	jmpq   40289a <_print_options+0x1c4>
  4026f3:	8b 45 fc             	mov    -0x4(%rbp),%eax
  4026f6:	48 63 d0             	movslq %eax,%rdx
  4026f9:	48 89 d0             	mov    %rdx,%rax
  4026fc:	48 c1 e0 03          	shl    $0x3,%rax
  402700:	48 29 d0             	sub    %rdx,%rax
  402703:	48 c1 e0 03          	shl    $0x3,%rax
  402707:	48 89 c2             	mov    %rax,%rdx
  40270a:	48 8b 45 c8          	mov    -0x38(%rbp),%rax
  40270e:	48 01 d0             	add    %rdx,%rax
  402711:	0f b6 40 30          	movzbl 0x30(%rax),%eax
  402715:	38 45 c4             	cmp    %al,-0x3c(%rbp)
  402718:	0f 85 77 01 00 00    	jne    402895 <_print_options+0x1bf>
  40271e:	8b 45 fc             	mov    -0x4(%rbp),%eax
  402721:	48 63 d0             	movslq %eax,%rdx
  402724:	48 89 d0             	mov    %rdx,%rax
  402727:	48 c1 e0 03          	shl    $0x3,%rax
  40272b:	48 29 d0             	sub    %rdx,%rax
  40272e:	48 c1 e0 03          	shl    $0x3,%rax
  402732:	48 89 c2             	mov    %rax,%rdx
  402735:	48 8b 45 c8          	mov    -0x38(%rbp),%rax
  402739:	48 01 d0             	add    %rdx,%rax
  40273c:	8b 40 18             	mov    0x18(%rax),%eax
  40273f:	83 f8 40             	cmp    $0x40,%eax
  402742:	7e 34                	jle    402778 <_print_options+0xa2>
  402744:	8b 45 fc             	mov    -0x4(%rbp),%eax
  402747:	48 63 d0             	movslq %eax,%rdx
  40274a:	48 89 d0             	mov    %rdx,%rax
  40274d:	48 c1 e0 03          	shl    $0x3,%rax
  402751:	48 29 d0             	sub    %rdx,%rax
  402754:	48 c1 e0 03          	shl    $0x3,%rax
  402758:	48 89 c2             	mov    %rax,%rdx
  40275b:	48 8b 45 c8          	mov    -0x38(%rbp),%rax
  40275f:	48 01 d0             	add    %rdx,%rax
  402762:	8b 40 18             	mov    0x18(%rax),%eax
  402765:	89 c6                	mov    %eax,%esi
  402767:	bf 10 70 41 00       	mov    $0x417010,%edi
  40276c:	b8 00 00 00 00       	mov    $0x0,%eax
  402771:	e8 8a fa ff ff       	callq  402200 <printf@plt>
  402776:	eb 0f                	jmp    402787 <_print_options+0xb1>
  402778:	bf 16 70 41 00       	mov    $0x417016,%edi
  40277d:	b8 00 00 00 00       	mov    $0x0,%eax
  402782:	e8 79 fa ff ff       	callq  402200 <printf@plt>
  402787:	8b 45 fc             	mov    -0x4(%rbp),%eax
  40278a:	48 63 d0             	movslq %eax,%rdx
  40278d:	48 89 d0             	mov    %rdx,%rax
  402790:	48 c1 e0 03          	shl    $0x3,%rax
  402794:	48 29 d0             	sub    %rdx,%rax
  402797:	48 c1 e0 03          	shl    $0x3,%rax
  40279b:	48 89 c2             	mov    %rax,%rdx
  40279e:	48 8b 45 c8          	mov    -0x38(%rbp),%rax
  4027a2:	48 01 d0             	add    %rdx,%rax
  4027a5:	48 8b 10             	mov    (%rax),%rdx
  4027a8:	48 8d 45 d0          	lea    -0x30(%rbp),%rax
  4027ac:	48 89 d1             	mov    %rdx,%rcx
  4027af:	ba 1b 70 41 00       	mov    $0x41701b,%edx
  4027b4:	be 1e 00 00 00       	mov    $0x1e,%esi
  4027b9:	48 89 c7             	mov    %rax,%rdi
  4027bc:	b8 00 00 00 00       	mov    $0x0,%eax
  4027c1:	e8 5a fa ff ff       	callq  402220 <snprintf@plt>
  4027c6:	89 45 f8             	mov    %eax,-0x8(%rbp)
  4027c9:	8b 45 fc             	mov    -0x4(%rbp),%eax
  4027cc:	48 63 d0             	movslq %eax,%rdx
  4027cf:	48 89 d0             	mov    %rdx,%rax
  4027d2:	48 c1 e0 03          	shl    $0x3,%rax
  4027d6:	48 29 d0             	sub    %rdx,%rax
  4027d9:	48 c1 e0 03          	shl    $0x3,%rax
  4027dd:	48 89 c2             	mov    %rax,%rdx
  4027e0:	48 8b 45 c8          	mov    -0x38(%rbp),%rax
  4027e4:	48 01 d0             	add    %rdx,%rax
  4027e7:	48 8b 40 28          	mov    0x28(%rax),%rax
  4027eb:	48 85 c0             	test   %rax,%rax
  4027ee:	74 4f                	je     40283f <_print_options+0x169>
  4027f0:	8b 45 fc             	mov    -0x4(%rbp),%eax
  4027f3:	48 63 d0             	movslq %eax,%rdx
  4027f6:	48 89 d0             	mov    %rdx,%rax
  4027f9:	48 c1 e0 03          	shl    $0x3,%rax
  4027fd:	48 29 d0             	sub    %rdx,%rax
  402800:	48 c1 e0 03          	shl    $0x3,%rax
  402804:	48 89 c2             	mov    %rax,%rdx
  402807:	48 8b 45 c8          	mov    -0x38(%rbp),%rax
  40280b:	48 01 d0             	add    %rdx,%rax
  40280e:	48 8b 50 28          	mov    0x28(%rax),%rdx
  402812:	b8 1e 00 00 00       	mov    $0x1e,%eax
  402817:	2b 45 f8             	sub    -0x8(%rbp),%eax
  40281a:	48 98                	cltq   
  40281c:	48 8d 75 d0          	lea    -0x30(%rbp),%rsi
  402820:	8b 4d f8             	mov    -0x8(%rbp),%ecx
  402823:	48 63 c9             	movslq %ecx,%rcx
  402826:	48 8d 3c 0e          	lea    (%rsi,%rcx,1),%rdi
  40282a:	48 89 d1             	mov    %rdx,%rcx
  40282d:	ba 21 70 41 00       	mov    $0x417021,%edx
  402832:	48 89 c6             	mov    %rax,%rsi
  402835:	b8 00 00 00 00       	mov    $0x0,%eax
  40283a:	e8 e1 f9 ff ff       	callq  402220 <snprintf@plt>
  40283f:	48 8d 45 d0          	lea    -0x30(%rbp),%rax
  402843:	48 89 c6             	mov    %rax,%rsi
  402846:	bf 25 70 41 00       	mov    $0x417025,%edi
  40284b:	b8 00 00 00 00       	mov    $0x0,%eax
  402850:	e8 ab f9 ff ff       	callq  402200 <printf@plt>
  402855:	8b 45 fc             	mov    -0x4(%rbp),%eax
  402858:	48 63 d0             	movslq %eax,%rdx
  40285b:	48 89 d0             	mov    %rdx,%rax
  40285e:	48 c1 e0 03          	shl    $0x3,%rax
  402862:	48 29 d0             	sub    %rdx,%rax
  402865:	48 c1 e0 03          	shl    $0x3,%rax
  402869:	48 89 c2             	mov    %rax,%rdx
  40286c:	48 8b 45 c8          	mov    -0x38(%rbp),%rax
  402870:	48 01 d0             	add    %rdx,%rax
  402873:	48 8b 40 20          	mov    0x20(%rax),%rax
  402877:	48 89 c6             	mov    %rax,%rsi
  40287a:	bf 2b 70 41 00       	mov    $0x41702b,%edi
  40287f:	b8 00 00 00 00       	mov    $0x0,%eax
  402884:	e8 77 f9 ff ff       	callq  402200 <printf@plt>
  402889:	bf 0a 00 00 00       	mov    $0xa,%edi
  40288e:	e8 cd f7 ff ff       	callq  402060 <putchar@plt>
  402893:	eb 01                	jmp    402896 <_print_options+0x1c0>
  402895:	90                   	nop
  402896:	83 45 fc 01          	addl   $0x1,-0x4(%rbp)
  40289a:	8b 45 fc             	mov    -0x4(%rbp),%eax
  40289d:	48 63 d0             	movslq %eax,%rdx
  4028a0:	48 89 d0             	mov    %rdx,%rax
  4028a3:	48 c1 e0 03          	shl    $0x3,%rax
  4028a7:	48 29 d0             	sub    %rdx,%rax
  4028aa:	48 c1 e0 03          	shl    $0x3,%rax
  4028ae:	48 89 c2             	mov    %rax,%rdx
  4028b1:	48 8b 45 c8          	mov    -0x38(%rbp),%rax
  4028b5:	48 01 d0             	add    %rdx,%rax
  4028b8:	48 8b 00             	mov    (%rax),%rax
  4028bb:	48 85 c0             	test   %rax,%rax
  4028be:	0f 85 2f fe ff ff    	jne    4026f3 <_print_options+0x1d>
  4028c4:	90                   	nop
  4028c5:	90                   	nop
  4028c6:	c9                   	leaveq 
  4028c7:	c3                   	retq   

00000000004028c8 <usage>:
  4028c8:	55                   	push   %rbp
  4028c9:	48 89 e5             	mov    %rsp,%rbp
  4028cc:	48 83 ec 20          	sub    $0x20,%rsp
  4028d0:	48 89 7d f8          	mov    %rdi,-0x8(%rbp)
  4028d4:	48 89 75 f0          	mov    %rsi,-0x10(%rbp)
  4028d8:	48 89 55 e8          	mov    %rdx,-0x18(%rbp)
  4028dc:	89 c8                	mov    %ecx,%eax
  4028de:	88 45 e4             	mov    %al,-0x1c(%rbp)
  4028e1:	48 8b 45 f8          	mov    -0x8(%rbp),%rax
  4028e5:	48 89 c6             	mov    %rax,%rsi
  4028e8:	bf 30 70 41 00       	mov    $0x417030,%edi
  4028ed:	b8 00 00 00 00       	mov    $0x0,%eax
  4028f2:	e8 09 f9 ff ff       	callq  402200 <printf@plt>
  4028f7:	0f b6 45 e4          	movzbl -0x1c(%rbp),%eax
  4028fb:	83 f0 01             	xor    $0x1,%eax
  4028fe:	84 c0                	test   %al,%al
  402900:	74 0c                	je     40290e <usage+0x46>
  402902:	bf 48 70 41 00       	mov    $0x417048,%edi
  402907:	e8 04 f8 ff ff       	callq  402110 <puts@plt>
  40290c:	eb 60                	jmp    40296e <usage+0xa6>
  40290e:	48 8b 45 f0          	mov    -0x10(%rbp),%rax
  402912:	48 89 c6             	mov    %rax,%rsi
  402915:	bf 74 70 41 00       	mov    $0x417074,%edi
  40291a:	b8 00 00 00 00       	mov    $0x0,%eax
  40291f:	e8 dc f8 ff ff       	callq  402200 <printf@plt>
  402924:	bf 89 70 41 00       	mov    $0x417089,%edi
  402929:	e8 e2 f7 ff ff       	callq  402110 <puts@plt>
  40292e:	48 8b 45 e8          	mov    -0x18(%rbp),%rax
  402932:	be 01 00 00 00       	mov    $0x1,%esi
  402937:	48 89 c7             	mov    %rax,%rdi
  40293a:	e8 97 fd ff ff       	callq  4026d6 <_print_options>
  40293f:	bf 0a 00 00 00       	mov    $0xa,%edi
  402944:	e8 17 f7 ff ff       	callq  402060 <putchar@plt>
  402949:	bf 9b 70 41 00       	mov    $0x41709b,%edi
  40294e:	e8 bd f7 ff ff       	callq  402110 <puts@plt>
  402953:	48 8b 45 e8          	mov    -0x18(%rbp),%rax
  402957:	be 00 00 00 00       	mov    $0x0,%esi
  40295c:	48 89 c7             	mov    %rax,%rdi
  40295f:	e8 72 fd ff ff       	callq  4026d6 <_print_options>
  402964:	bf 0a 00 00 00       	mov    $0xa,%edi
  402969:	e8 f2 f6 ff ff       	callq  402060 <putchar@plt>
  40296e:	c9                   	leaveq 
  40296f:	c3                   	retq   

0000000000402970 <option_wrappers_to_options>:
  402970:	55                   	push   %rbp
  402971:	48 89 e5             	mov    %rsp,%rbp
  402974:	48 83 ec 20          	sub    $0x20,%rsp
  402978:	48 89 7d e8          	mov    %rdi,-0x18(%rbp)
  40297c:	48 89 75 e0          	mov    %rsi,-0x20(%rbp)
  402980:	c7 45 fc 00 00 00 00 	movl   $0x0,-0x4(%rbp)
  402987:	eb 04                	jmp    40298d <option_wrappers_to_options+0x1d>
  402989:	83 45 fc 01          	addl   $0x1,-0x4(%rbp)
  40298d:	8b 45 fc             	mov    -0x4(%rbp),%eax
  402990:	48 63 d0             	movslq %eax,%rdx
  402993:	48 89 d0             	mov    %rdx,%rax
  402996:	48 c1 e0 03          	shl    $0x3,%rax
  40299a:	48 29 d0             	sub    %rdx,%rax
  40299d:	48 c1 e0 03          	shl    $0x3,%rax
  4029a1:	48 89 c2             	mov    %rax,%rdx
  4029a4:	48 8b 45 e8          	mov    -0x18(%rbp),%rax
  4029a8:	48 01 d0             	add    %rdx,%rax
  4029ab:	48 8b 00             	mov    (%rax),%rax
  4029ae:	48 85 c0             	test   %rax,%rax
  4029b1:	75 d6                	jne    402989 <option_wrappers_to_options+0x19>
  4029b3:	8b 45 fc             	mov    -0x4(%rbp),%eax
  4029b6:	89 45 f8             	mov    %eax,-0x8(%rbp)
  4029b9:	8b 45 f8             	mov    -0x8(%rbp),%eax
  4029bc:	48 98                	cltq   
  4029be:	48 c1 e0 05          	shl    $0x5,%rax
  4029c2:	48 89 c7             	mov    %rax,%rdi
  4029c5:	e8 16 fa ff ff       	callq  4023e0 <malloc@plt>
  4029ca:	48 89 45 f0          	mov    %rax,-0x10(%rbp)
  4029ce:	48 83 7d f0 00       	cmpq   $0x0,-0x10(%rbp)
  4029d3:	75 07                	jne    4029dc <option_wrappers_to_options+0x6c>
  4029d5:	b8 ff ff ff ff       	mov    $0xffffffff,%eax
  4029da:	eb 67                	jmp    402a43 <option_wrappers_to_options+0xd3>
  4029dc:	c7 45 fc 00 00 00 00 	movl   $0x0,-0x4(%rbp)
  4029e3:	eb 46                	jmp    402a2b <option_wrappers_to_options+0xbb>
  4029e5:	8b 45 fc             	mov    -0x4(%rbp),%eax
  4029e8:	48 63 d0             	movslq %eax,%rdx
  4029eb:	48 89 d0             	mov    %rdx,%rax
  4029ee:	48 c1 e0 03          	shl    $0x3,%rax
  4029f2:	48 29 d0             	sub    %rdx,%rax
  4029f5:	48 c1 e0 03          	shl    $0x3,%rax
  4029f9:	48 89 c2             	mov    %rax,%rdx
  4029fc:	48 8b 45 e8          	mov    -0x18(%rbp),%rax
  402a00:	48 8d 0c 02          	lea    (%rdx,%rax,1),%rcx
  402a04:	8b 45 fc             	mov    -0x4(%rbp),%eax
  402a07:	48 98                	cltq   
  402a09:	48 c1 e0 05          	shl    $0x5,%rax
  402a0d:	48 89 c2             	mov    %rax,%rdx
  402a10:	48 8b 45 f0          	mov    -0x10(%rbp),%rax
  402a14:	48 01 d0             	add    %rdx,%rax
  402a17:	ba 20 00 00 00       	mov    $0x20,%edx
  402a1c:	48 89 ce             	mov    %rcx,%rsi
  402a1f:	48 89 c7             	mov    %rax,%rdi
  402a22:	e8 79 f9 ff ff       	callq  4023a0 <memcpy@plt>
  402a27:	83 45 fc 01          	addl   $0x1,-0x4(%rbp)
  402a2b:	8b 45 fc             	mov    -0x4(%rbp),%eax
  402a2e:	3b 45 f8             	cmp    -0x8(%rbp),%eax
  402a31:	7c b2                	jl     4029e5 <option_wrappers_to_options+0x75>
  402a33:	48 8b 45 e0          	mov    -0x20(%rbp),%rax
  402a37:	48 8b 55 f0          	mov    -0x10(%rbp),%rdx
  402a3b:	48 89 10             	mov    %rdx,(%rax)
  402a3e:	b8 00 00 00 00       	mov    $0x0,%eax
  402a43:	c9                   	leaveq 
  402a44:	c3                   	retq   

0000000000402a45 <parse_cmdline_args>:
  402a45:	55                   	push   %rbp
  402a46:	48 89 e5             	mov    %rsp,%rbp
  402a49:	53                   	push   %rbx
  402a4a:	48 83 ec 58          	sub    $0x58,%rsp
  402a4e:	89 7d cc             	mov    %edi,-0x34(%rbp)
  402a51:	48 89 75 c0          	mov    %rsi,-0x40(%rbp)
  402a55:	48 89 55 b8          	mov    %rdx,-0x48(%rbp)
  402a59:	48 89 4d b0          	mov    %rcx,-0x50(%rbp)
  402a5d:	4c 89 45 a8          	mov    %r8,-0x58(%rbp)
  402a61:	c6 45 ef 00          	movb   $0x0,-0x11(%rbp)
  402a65:	c7 45 d4 00 00 00 00 	movl   $0x0,-0x2c(%rbp)
  402a6c:	48 8d 55 d8          	lea    -0x28(%rbp),%rdx
  402a70:	48 8b 45 b8          	mov    -0x48(%rbp),%rax
  402a74:	48 89 d6             	mov    %rdx,%rsi
  402a77:	48 89 c7             	mov    %rax,%rdi
  402a7a:	e8 f1 fe ff ff       	callq  402970 <option_wrappers_to_options>
  402a7f:	85 c0                	test   %eax,%eax
  402a81:	0f 84 6b 04 00 00    	je     402ef2 <parse_cmdline_args+0x4ad>
  402a87:	48 8b 05 92 09 02 00 	mov    0x20992(%rip),%rax        # 423420 <stderr@@GLIBC_2.2.5>
  402a8e:	48 89 c1             	mov    %rax,%rcx
  402a91:	ba 13 00 00 00       	mov    $0x13,%edx
  402a96:	be 01 00 00 00       	mov    $0x1,%esi
  402a9b:	bf aa 70 41 00       	mov    $0x4170aa,%edi
  402aa0:	e8 ab fa ff ff       	callq  402550 <fwrite@plt>
  402aa5:	bf 02 00 00 00       	mov    $0x2,%edi
  402aaa:	e8 91 fa ff ff       	callq  402540 <exit@plt>
  402aaf:	83 7d e8 7a          	cmpl   $0x7a,-0x18(%rbp)
  402ab3:	0f 87 08 04 00 00    	ja     402ec1 <parse_cmdline_args+0x47c>
  402ab9:	8b 45 e8             	mov    -0x18(%rbp),%eax
  402abc:	48 8b 04 c5 80 71 41 	mov    0x417180(,%rax,8),%rax
  402ac3:	00 
  402ac4:	ff e0                	jmpq   *%rax
  402ac6:	48 8b 05 33 09 02 00 	mov    0x20933(%rip),%rax        # 423400 <optarg@@GLIBC_2.2.5>
  402acd:	48 89 c7             	mov    %rax,%rdi
  402ad0:	e8 eb f6 ff ff       	callq  4021c0 <strlen@plt>
  402ad5:	48 83 f8 0f          	cmp    $0xf,%rax
  402ad9:	76 23                	jbe    402afe <parse_cmdline_args+0xb9>
  402adb:	48 8b 05 3e 09 02 00 	mov    0x2093e(%rip),%rax        # 423420 <stderr@@GLIBC_2.2.5>
  402ae2:	48 89 c1             	mov    %rax,%rcx
  402ae5:	ba 19 00 00 00       	mov    $0x19,%edx
  402aea:	be 01 00 00 00       	mov    $0x1,%esi
  402aef:	bf be 70 41 00       	mov    $0x4170be,%edi
  402af4:	e8 57 fa ff ff       	callq  402550 <fwrite@plt>
  402af9:	e9 c3 03 00 00       	jmpq   402ec1 <parse_cmdline_args+0x47c>
  402afe:	48 8b 45 b0          	mov    -0x50(%rbp),%rax
  402b02:	48 8d 50 10          	lea    0x10(%rax),%rdx
  402b06:	48 8b 45 b0          	mov    -0x50(%rbp),%rax
  402b0a:	48 89 50 08          	mov    %rdx,0x8(%rax)
  402b0e:	48 8b 0d eb 08 02 00 	mov    0x208eb(%rip),%rcx        # 423400 <optarg@@GLIBC_2.2.5>
  402b15:	48 8b 45 b0          	mov    -0x50(%rbp),%rax
  402b19:	48 8b 40 08          	mov    0x8(%rax),%rax
  402b1d:	ba 10 00 00 00       	mov    $0x10,%edx
  402b22:	48 89 ce             	mov    %rcx,%rsi
  402b25:	48 89 c7             	mov    %rax,%rdi
  402b28:	e8 83 f5 ff ff       	callq  4020b0 <strncpy@plt>
  402b2d:	48 8b 45 b0          	mov    -0x50(%rbp),%rax
  402b31:	48 8b 40 08          	mov    0x8(%rax),%rax
  402b35:	48 89 c7             	mov    %rax,%rdi
  402b38:	e8 23 f8 ff ff       	callq  402360 <if_nametoindex@plt>
  402b3d:	89 c2                	mov    %eax,%edx
  402b3f:	48 8b 45 b0          	mov    -0x50(%rbp),%rax
  402b43:	89 50 04             	mov    %edx,0x4(%rax)
  402b46:	48 8b 45 b0          	mov    -0x50(%rbp),%rax
  402b4a:	8b 40 04             	mov    0x4(%rax),%eax
  402b4d:	85 c0                	test   %eax,%eax
  402b4f:	0f 85 9d 03 00 00    	jne    402ef2 <parse_cmdline_args+0x4ad>
  402b55:	e8 36 f5 ff ff       	callq  402090 <__errno_location@plt>
  402b5a:	8b 00                	mov    (%rax),%eax
  402b5c:	89 c7                	mov    %eax,%edi
  402b5e:	e8 2d fa ff ff       	callq  402590 <strerror@plt>
  402b63:	48 89 c3             	mov    %rax,%rbx
  402b66:	e8 25 f5 ff ff       	callq  402090 <__errno_location@plt>
  402b6b:	8b 10                	mov    (%rax),%edx
  402b6d:	48 8b 05 ac 08 02 00 	mov    0x208ac(%rip),%rax        # 423420 <stderr@@GLIBC_2.2.5>
  402b74:	48 89 d9             	mov    %rbx,%rcx
  402b77:	be d8 70 41 00       	mov    $0x4170d8,%esi
  402b7c:	48 89 c7             	mov    %rax,%rdi
  402b7f:	b8 00 00 00 00       	mov    $0x0,%eax
  402b84:	e8 b7 f7 ff ff       	callq  402340 <fprintf@plt>
  402b89:	e9 33 03 00 00       	jmpq   402ec1 <parse_cmdline_args+0x47c>
  402b8e:	48 8b 05 6b 08 02 00 	mov    0x2086b(%rip),%rax        # 423400 <optarg@@GLIBC_2.2.5>
  402b95:	48 89 c7             	mov    %rax,%rdi
  402b98:	e8 23 f6 ff ff       	callq  4021c0 <strlen@plt>
  402b9d:	48 83 f8 0f          	cmp    $0xf,%rax
  402ba1:	76 23                	jbe    402bc6 <parse_cmdline_args+0x181>
  402ba3:	48 8b 05 76 08 02 00 	mov    0x20876(%rip),%rax        # 423420 <stderr@@GLIBC_2.2.5>
  402baa:	48 89 c1             	mov    %rax,%rcx
  402bad:	ba 22 00 00 00       	mov    $0x22,%edx
  402bb2:	be 01 00 00 00       	mov    $0x1,%esi
  402bb7:	bf 00 71 41 00       	mov    $0x417100,%edi
  402bbc:	e8 8f f9 ff ff       	callq  402550 <fwrite@plt>
  402bc1:	e9 fb 02 00 00       	jmpq   402ec1 <parse_cmdline_args+0x47c>
  402bc6:	48 8b 45 b0          	mov    -0x50(%rbp),%rax
  402bca:	48 8d 50 30          	lea    0x30(%rax),%rdx
  402bce:	48 8b 45 b0          	mov    -0x50(%rbp),%rax
  402bd2:	48 89 50 28          	mov    %rdx,0x28(%rax)
  402bd6:	48 8b 0d 23 08 02 00 	mov    0x20823(%rip),%rcx        # 423400 <optarg@@GLIBC_2.2.5>
  402bdd:	48 8b 45 b0          	mov    -0x50(%rbp),%rax
  402be1:	48 8b 40 28          	mov    0x28(%rax),%rax
  402be5:	ba 10 00 00 00       	mov    $0x10,%edx
  402bea:	48 89 ce             	mov    %rcx,%rsi
  402bed:	48 89 c7             	mov    %rax,%rdi
  402bf0:	e8 bb f4 ff ff       	callq  4020b0 <strncpy@plt>
  402bf5:	48 8b 45 b0          	mov    -0x50(%rbp),%rax
  402bf9:	48 8b 40 28          	mov    0x28(%rax),%rax
  402bfd:	48 89 c7             	mov    %rax,%rdi
  402c00:	e8 5b f7 ff ff       	callq  402360 <if_nametoindex@plt>
  402c05:	89 c2                	mov    %eax,%edx
  402c07:	48 8b 45 b0          	mov    -0x50(%rbp),%rax
  402c0b:	89 50 20             	mov    %edx,0x20(%rax)
  402c0e:	48 8b 45 b0          	mov    -0x50(%rbp),%rax
  402c12:	8b 40 20             	mov    0x20(%rax),%eax
  402c15:	85 c0                	test   %eax,%eax
  402c17:	0f 85 d5 02 00 00    	jne    402ef2 <parse_cmdline_args+0x4ad>
  402c1d:	e8 6e f4 ff ff       	callq  402090 <__errno_location@plt>
  402c22:	8b 00                	mov    (%rax),%eax
  402c24:	89 c7                	mov    %eax,%edi
  402c26:	e8 65 f9 ff ff       	callq  402590 <strerror@plt>
  402c2b:	48 89 c3             	mov    %rax,%rbx
  402c2e:	e8 5d f4 ff ff       	callq  402090 <__errno_location@plt>
  402c33:	8b 10                	mov    (%rax),%edx
  402c35:	48 8b 05 e4 07 02 00 	mov    0x207e4(%rip),%rax        # 423420 <stderr@@GLIBC_2.2.5>
  402c3c:	48 89 d9             	mov    %rbx,%rcx
  402c3f:	be 28 71 41 00       	mov    $0x417128,%esi
  402c44:	48 89 c7             	mov    %rax,%rdi
  402c47:	b8 00 00 00 00       	mov    $0x0,%eax
  402c4c:	e8 ef f6 ff ff       	callq  402340 <fprintf@plt>
  402c51:	e9 6b 02 00 00       	jmpq   402ec1 <parse_cmdline_args+0x47c>
  402c56:	48 8b 45 b0          	mov    -0x50(%rbp),%rax
  402c5a:	8b 00                	mov    (%rax),%eax
  402c5c:	83 e0 f1             	and    $0xfffffff1,%eax
  402c5f:	89 c2                	mov    %eax,%edx
  402c61:	48 8b 45 b0          	mov    -0x50(%rbp),%rax
  402c65:	89 10                	mov    %edx,(%rax)
  402c67:	e9 86 02 00 00       	jmpq   402ef2 <parse_cmdline_args+0x4ad>
  402c6c:	48 8b 45 b0          	mov    -0x50(%rbp),%rax
  402c70:	8b 00                	mov    (%rax),%eax
  402c72:	83 e0 f1             	and    $0xfffffff1,%eax
  402c75:	89 c2                	mov    %eax,%edx
  402c77:	48 8b 45 b0          	mov    -0x50(%rbp),%rax
  402c7b:	89 10                	mov    %edx,(%rax)
  402c7d:	48 8b 45 b0          	mov    -0x50(%rbp),%rax
  402c81:	8b 00                	mov    (%rax),%eax
  402c83:	83 c8 02             	or     $0x2,%eax
  402c86:	89 c2                	mov    %eax,%edx
  402c88:	48 8b 45 b0          	mov    -0x50(%rbp),%rax
  402c8c:	89 10                	mov    %edx,(%rax)
  402c8e:	48 8b 45 b0          	mov    -0x50(%rbp),%rax
  402c92:	0f b7 80 86 04 00 00 	movzwl 0x486(%rax),%eax
  402c99:	83 e0 04             	and    $0x4,%eax
  402c9c:	89 c2                	mov    %eax,%edx
  402c9e:	48 8b 45 b0          	mov    -0x50(%rbp),%rax
  402ca2:	66 89 90 86 04 00 00 	mov    %dx,0x486(%rax)
  402ca9:	48 8b 45 b0          	mov    -0x50(%rbp),%rax
  402cad:	0f b7 80 86 04 00 00 	movzwl 0x486(%rax),%eax
  402cb4:	83 c8 02             	or     $0x2,%eax
  402cb7:	89 c2                	mov    %eax,%edx
  402cb9:	48 8b 45 b0          	mov    -0x50(%rbp),%rax
  402cbd:	66 89 90 86 04 00 00 	mov    %dx,0x486(%rax)
  402cc4:	e9 29 02 00 00       	jmpq   402ef2 <parse_cmdline_args+0x4ad>
  402cc9:	48 8b 45 b0          	mov    -0x50(%rbp),%rax
  402ccd:	8b 00                	mov    (%rax),%eax
  402ccf:	83 e0 f1             	and    $0xfffffff1,%eax
  402cd2:	89 c2                	mov    %eax,%edx
  402cd4:	48 8b 45 b0          	mov    -0x50(%rbp),%rax
  402cd8:	89 10                	mov    %edx,(%rax)
  402cda:	48 8b 45 b0          	mov    -0x50(%rbp),%rax
  402cde:	8b 00                	mov    (%rax),%eax
  402ce0:	83 c8 04             	or     $0x4,%eax
  402ce3:	89 c2                	mov    %eax,%edx
  402ce5:	48 8b 45 b0          	mov    -0x50(%rbp),%rax
  402ce9:	89 10                	mov    %edx,(%rax)
  402ceb:	e9 02 02 00 00       	jmpq   402ef2 <parse_cmdline_args+0x4ad>
  402cf0:	48 8b 45 b0          	mov    -0x50(%rbp),%rax
  402cf4:	8b 00                	mov    (%rax),%eax
  402cf6:	83 e0 f1             	and    $0xfffffff1,%eax
  402cf9:	89 c2                	mov    %eax,%edx
  402cfb:	48 8b 45 b0          	mov    -0x50(%rbp),%rax
  402cff:	89 10                	mov    %edx,(%rax)
  402d01:	48 8b 45 b0          	mov    -0x50(%rbp),%rax
  402d05:	8b 00                	mov    (%rax),%eax
  402d07:	83 c8 08             	or     $0x8,%eax
  402d0a:	89 c2                	mov    %eax,%edx
  402d0c:	48 8b 45 b0          	mov    -0x50(%rbp),%rax
  402d10:	89 10                	mov    %edx,(%rax)
  402d12:	e9 db 01 00 00       	jmpq   402ef2 <parse_cmdline_args+0x4ad>
  402d17:	48 8b 45 b0          	mov    -0x50(%rbp),%rax
  402d1b:	8b 00                	mov    (%rax),%eax
  402d1d:	83 e0 fe             	and    $0xfffffffe,%eax
  402d20:	89 c2                	mov    %eax,%edx
  402d22:	48 8b 45 b0          	mov    -0x50(%rbp),%rax
  402d26:	89 10                	mov    %edx,(%rax)
  402d28:	e9 c5 01 00 00       	jmpq   402ef2 <parse_cmdline_args+0x4ad>
  402d2d:	48 8b 45 b0          	mov    -0x50(%rbp),%rax
  402d31:	c6 40 41 01          	movb   $0x1,0x41(%rax)
  402d35:	e9 b8 01 00 00       	jmpq   402ef2 <parse_cmdline_args+0x4ad>
  402d3a:	48 8b 45 b0          	mov    -0x50(%rbp),%rax
  402d3e:	c6 40 40 01          	movb   $0x1,0x40(%rax)
  402d42:	e9 ab 01 00 00       	jmpq   402ef2 <parse_cmdline_args+0x4ad>
  402d47:	48 8b 45 b0          	mov    -0x50(%rbp),%rax
  402d4b:	c6 80 8c 04 00 00 01 	movb   $0x1,0x48c(%rax)
  402d52:	e9 9b 01 00 00       	jmpq   402ef2 <parse_cmdline_args+0x4ad>
  402d57:	c7 05 a3 05 02 00 00 	movl   $0x0,0x205a3(%rip)        # 423304 <verbose>
  402d5e:	00 00 00 
  402d61:	e9 8c 01 00 00       	jmpq   402ef2 <parse_cmdline_args+0x4ad>
  402d66:	48 8b 05 93 06 02 00 	mov    0x20693(%rip),%rax        # 423400 <optarg@@GLIBC_2.2.5>
  402d6d:	48 89 c7             	mov    %rax,%rdi
  402d70:	e8 ab f7 ff ff       	callq  402520 <atoi@plt>
  402d75:	48 8b 55 b0          	mov    -0x50(%rbp),%rdx
  402d79:	89 82 88 04 00 00    	mov    %eax,0x488(%rdx)
  402d7f:	e9 6e 01 00 00       	jmpq   402ef2 <parse_cmdline_args+0x4ad>
  402d84:	48 8b 45 b0          	mov    -0x50(%rbp),%rax
  402d88:	48 05 42 02 00 00    	add    $0x242,%rax
  402d8e:	48 89 45 e0          	mov    %rax,-0x20(%rbp)
  402d92:	48 8b 45 e0          	mov    -0x20(%rbp),%rax
  402d96:	48 89 c6             	mov    %rax,%rsi
  402d99:	bf 55 71 41 00       	mov    $0x417155,%edi
  402d9e:	b8 00 00 00 00       	mov    $0x0,%eax
  402da3:	e8 58 f4 ff ff       	callq  402200 <printf@plt>
  402da8:	48 8b 0d 51 06 02 00 	mov    0x20651(%rip),%rcx        # 423400 <optarg@@GLIBC_2.2.5>
  402daf:	48 8b 45 e0          	mov    -0x20(%rbp),%rax
  402db3:	ba 00 02 00 00       	mov    $0x200,%edx
  402db8:	48 89 ce             	mov    %rcx,%rsi
  402dbb:	48 89 c7             	mov    %rax,%rdi
  402dbe:	e8 ed f2 ff ff       	callq  4020b0 <strncpy@plt>
  402dc3:	e9 2a 01 00 00       	jmpq   402ef2 <parse_cmdline_args+0x4ad>
  402dc8:	48 8b 45 b0          	mov    -0x50(%rbp),%rax
  402dcc:	48 05 42 04 00 00    	add    $0x442,%rax
  402dd2:	48 89 45 e0          	mov    %rax,-0x20(%rbp)
  402dd6:	48 8b 0d 23 06 02 00 	mov    0x20623(%rip),%rcx        # 423400 <optarg@@GLIBC_2.2.5>
  402ddd:	48 8b 45 e0          	mov    -0x20(%rbp),%rax
  402de1:	ba 20 00 00 00       	mov    $0x20,%edx
  402de6:	48 89 ce             	mov    %rcx,%rsi
  402de9:	48 89 c7             	mov    %rax,%rdi
  402dec:	e8 bf f2 ff ff       	callq  4020b0 <strncpy@plt>
  402df1:	e9 fc 00 00 00       	jmpq   402ef2 <parse_cmdline_args+0x4ad>
  402df6:	48 8b 45 b0          	mov    -0x50(%rbp),%rax
  402dfa:	48 05 62 04 00 00    	add    $0x462,%rax
  402e00:	48 89 45 e0          	mov    %rax,-0x20(%rbp)
  402e04:	48 8b 0d f5 05 02 00 	mov    0x205f5(%rip),%rcx        # 423400 <optarg@@GLIBC_2.2.5>
  402e0b:	48 8b 45 e0          	mov    -0x20(%rbp),%rax
  402e0f:	ba 12 00 00 00       	mov    $0x12,%edx
  402e14:	48 89 ce             	mov    %rcx,%rsi
  402e17:	48 89 c7             	mov    %rax,%rdi
  402e1a:	e8 91 f2 ff ff       	callq  4020b0 <strncpy@plt>
  402e1f:	e9 ce 00 00 00       	jmpq   402ef2 <parse_cmdline_args+0x4ad>
  402e24:	48 8b 45 b0          	mov    -0x50(%rbp),%rax
  402e28:	48 05 74 04 00 00    	add    $0x474,%rax
  402e2e:	48 89 45 e0          	mov    %rax,-0x20(%rbp)
  402e32:	48 8b 0d c7 05 02 00 	mov    0x205c7(%rip),%rcx        # 423400 <optarg@@GLIBC_2.2.5>
  402e39:	48 8b 45 e0          	mov    -0x20(%rbp),%rax
  402e3d:	ba 12 00 00 00       	mov    $0x12,%edx
  402e42:	48 89 ce             	mov    %rcx,%rsi
  402e45:	48 89 c7             	mov    %rax,%rdi
  402e48:	e8 63 f2 ff ff       	callq  4020b0 <strncpy@plt>
  402e4d:	48 8b 45 b0          	mov    -0x50(%rbp),%rax
  402e51:	0f b7 80 86 04 00 00 	movzwl 0x486(%rax),%eax
  402e58:	83 e0 04             	and    $0x4,%eax
  402e5b:	89 c2                	mov    %eax,%edx
  402e5d:	48 8b 45 b0          	mov    -0x50(%rbp),%rax
  402e61:	66 89 90 86 04 00 00 	mov    %dx,0x486(%rax)
  402e68:	48 8b 45 b0          	mov    -0x50(%rbp),%rax
  402e6c:	0f b7 80 86 04 00 00 	movzwl 0x486(%rax),%eax
  402e73:	83 c8 02             	or     $0x2,%eax
  402e76:	89 c2                	mov    %eax,%edx
  402e78:	48 8b 45 b0          	mov    -0x50(%rbp),%rax
  402e7c:	66 89 90 86 04 00 00 	mov    %dx,0x486(%rax)
  402e83:	eb 6d                	jmp    402ef2 <parse_cmdline_args+0x4ad>
  402e85:	48 8b 45 b0          	mov    -0x50(%rbp),%rax
  402e89:	0f b7 80 86 04 00 00 	movzwl 0x486(%rax),%eax
  402e90:	83 e0 02             	and    $0x2,%eax
  402e93:	89 c2                	mov    %eax,%edx
  402e95:	48 8b 45 b0          	mov    -0x50(%rbp),%rax
  402e99:	66 89 90 86 04 00 00 	mov    %dx,0x486(%rax)
  402ea0:	48 8b 45 b0          	mov    -0x50(%rbp),%rax
  402ea4:	0f b7 80 86 04 00 00 	movzwl 0x486(%rax),%eax
  402eab:	83 c8 04             	or     $0x4,%eax
  402eae:	89 c2                	mov    %eax,%edx
  402eb0:	48 8b 45 b0          	mov    -0x50(%rbp),%rax
  402eb4:	66 89 90 86 04 00 00 	mov    %dx,0x486(%rax)
  402ebb:	eb 35                	jmp    402ef2 <parse_cmdline_args+0x4ad>
  402ebd:	c6 45 ef 01          	movb   $0x1,-0x11(%rbp)
  402ec1:	0f b6 4d ef          	movzbl -0x11(%rbp),%ecx
  402ec5:	48 8b 45 c0          	mov    -0x40(%rbp),%rax
  402ec9:	48 8b 00             	mov    (%rax),%rax
  402ecc:	48 8b 55 b8          	mov    -0x48(%rbp),%rdx
  402ed0:	48 8b 75 a8          	mov    -0x58(%rbp),%rsi
  402ed4:	48 89 c7             	mov    %rax,%rdi
  402ed7:	e8 ec f9 ff ff       	callq  4028c8 <usage>
  402edc:	48 8b 45 d8          	mov    -0x28(%rbp),%rax
  402ee0:	48 89 c7             	mov    %rax,%rdi
  402ee3:	e8 58 f1 ff ff       	callq  402040 <free@plt>
  402ee8:	bf 02 00 00 00       	mov    $0x2,%edi
  402eed:	e8 4e f6 ff ff       	callq  402540 <exit@plt>
  402ef2:	48 8b 55 d8          	mov    -0x28(%rbp),%rdx
  402ef6:	48 8d 4d d4          	lea    -0x2c(%rbp),%rcx
  402efa:	48 8b 75 c0          	mov    -0x40(%rbp),%rsi
  402efe:	8b 45 cc             	mov    -0x34(%rbp),%eax
  402f01:	49 89 c8             	mov    %rcx,%r8
  402f04:	48 89 d1             	mov    %rdx,%rcx
  402f07:	ba 64 71 41 00       	mov    $0x417164,%edx
  402f0c:	89 c7                	mov    %eax,%edi
  402f0e:	e8 bd f2 ff ff       	callq  4021d0 <getopt_long@plt>
  402f13:	89 45 e8             	mov    %eax,-0x18(%rbp)
  402f16:	83 7d e8 ff          	cmpl   $0xffffffff,-0x18(%rbp)
  402f1a:	0f 85 8f fb ff ff    	jne    402aaf <parse_cmdline_args+0x6a>
  402f20:	48 8b 45 d8          	mov    -0x28(%rbp),%rax
  402f24:	48 89 c7             	mov    %rax,%rdi
  402f27:	e8 14 f1 ff ff       	callq  402040 <free@plt>
  402f2c:	90                   	nop
  402f2d:	48 83 c4 58          	add    $0x58,%rsp
  402f31:	5b                   	pop    %rbx
  402f32:	5d                   	pop    %rbp
  402f33:	c3                   	retq   

0000000000402f34 <PTR_ERR>:
  402f34:	55                   	push   %rbp
  402f35:	48 89 e5             	mov    %rsp,%rbp
  402f38:	48 89 7d f8          	mov    %rdi,-0x8(%rbp)
  402f3c:	48 8b 45 f8          	mov    -0x8(%rbp),%rax
  402f40:	5d                   	pop    %rbp
  402f41:	c3                   	retq   

0000000000402f42 <IS_ERR_OR_NULL>:
  402f42:	55                   	push   %rbp
  402f43:	48 89 e5             	mov    %rsp,%rbp
  402f46:	48 89 7d f8          	mov    %rdi,-0x8(%rbp)
  402f4a:	48 83 7d f8 00       	cmpq   $0x0,-0x8(%rbp)
  402f4f:	74 0c                	je     402f5d <IS_ERR_OR_NULL+0x1b>
  402f51:	48 8b 45 f8          	mov    -0x8(%rbp),%rax
  402f55:	48 3d 00 f0 ff ff    	cmp    $0xfffffffffffff000,%rax
  402f5b:	76 07                	jbe    402f64 <IS_ERR_OR_NULL+0x22>
  402f5d:	b8 01 00 00 00       	mov    $0x1,%eax
  402f62:	eb 05                	jmp    402f69 <IS_ERR_OR_NULL+0x27>
  402f64:	b8 00 00 00 00       	mov    $0x0,%eax
  402f69:	83 e0 01             	and    $0x1,%eax
  402f6c:	5d                   	pop    %rbp
  402f6d:	c3                   	retq   

0000000000402f6e <xdp_link_attach>:
  402f6e:	55                   	push   %rbp
  402f6f:	48 89 e5             	mov    %rsp,%rbp
  402f72:	48 83 ec 20          	sub    $0x20,%rsp
  402f76:	89 7d ec             	mov    %edi,-0x14(%rbp)
  402f79:	89 75 e8             	mov    %esi,-0x18(%rbp)
  402f7c:	89 55 e4             	mov    %edx,-0x1c(%rbp)
  402f7f:	8b 55 e8             	mov    -0x18(%rbp),%edx
  402f82:	8b 4d e4             	mov    -0x1c(%rbp),%ecx
  402f85:	8b 45 ec             	mov    -0x14(%rbp),%eax
  402f88:	89 ce                	mov    %ecx,%esi
  402f8a:	89 c7                	mov    %eax,%edi
  402f8c:	e8 ff d5 00 00       	callq  410590 <bpf_set_link_xdp_fd>
  402f91:	89 45 fc             	mov    %eax,-0x4(%rbp)
  402f94:	83 7d fc ef          	cmpl   $0xffffffef,-0x4(%rbp)
  402f98:	75 5d                	jne    402ff7 <xdp_link_attach+0x89>
  402f9a:	8b 45 e8             	mov    -0x18(%rbp),%eax
  402f9d:	83 e0 01             	and    $0x1,%eax
  402fa0:	85 c0                	test   %eax,%eax
  402fa2:	75 53                	jne    402ff7 <xdp_link_attach+0x89>
  402fa4:	8b 45 e8             	mov    -0x18(%rbp),%eax
  402fa7:	89 45 f8             	mov    %eax,-0x8(%rbp)
  402faa:	83 65 e8 f1          	andl   $0xfffffff1,-0x18(%rbp)
  402fae:	8b 45 f8             	mov    -0x8(%rbp),%eax
  402fb1:	83 e0 02             	and    $0x2,%eax
  402fb4:	85 c0                	test   %eax,%eax
  402fb6:	74 07                	je     402fbf <xdp_link_attach+0x51>
  402fb8:	b8 04 00 00 00       	mov    $0x4,%eax
  402fbd:	eb 05                	jmp    402fc4 <xdp_link_attach+0x56>
  402fbf:	b8 02 00 00 00       	mov    $0x2,%eax
  402fc4:	09 45 e8             	or     %eax,-0x18(%rbp)
  402fc7:	8b 55 e8             	mov    -0x18(%rbp),%edx
  402fca:	8b 45 ec             	mov    -0x14(%rbp),%eax
  402fcd:	be ff ff ff ff       	mov    $0xffffffff,%esi
  402fd2:	89 c7                	mov    %eax,%edi
  402fd4:	e8 b7 d5 00 00       	callq  410590 <bpf_set_link_xdp_fd>
  402fd9:	89 45 fc             	mov    %eax,-0x4(%rbp)
  402fdc:	83 7d fc 00          	cmpl   $0x0,-0x4(%rbp)
  402fe0:	75 15                	jne    402ff7 <xdp_link_attach+0x89>
  402fe2:	8b 55 f8             	mov    -0x8(%rbp),%edx
  402fe5:	8b 4d e4             	mov    -0x1c(%rbp),%ecx
  402fe8:	8b 45 ec             	mov    -0x14(%rbp),%eax
  402feb:	89 ce                	mov    %ecx,%esi
  402fed:	89 c7                	mov    %eax,%edi
  402fef:	e8 9c d5 00 00       	callq  410590 <bpf_set_link_xdp_fd>
  402ff4:	89 45 fc             	mov    %eax,-0x4(%rbp)
  402ff7:	83 7d fc 00          	cmpl   $0x0,-0x4(%rbp)
  402ffb:	0f 89 93 00 00 00    	jns    403094 <xdp_link_attach+0x126>
  403001:	8b 45 fc             	mov    -0x4(%rbp),%eax
  403004:	f7 d8                	neg    %eax
  403006:	89 c7                	mov    %eax,%edi
  403008:	e8 83 f5 ff ff       	callq  402590 <strerror@plt>
  40300d:	48 89 c6             	mov    %rax,%rsi
  403010:	8b 45 fc             	mov    -0x4(%rbp),%eax
  403013:	f7 d8                	neg    %eax
  403015:	89 c1                	mov    %eax,%ecx
  403017:	48 8b 05 02 04 02 00 	mov    0x20402(%rip),%rax        # 423420 <stderr@@GLIBC_2.2.5>
  40301e:	8b 55 ec             	mov    -0x14(%rbp),%edx
  403021:	49 89 f0             	mov    %rsi,%r8
  403024:	be 60 75 41 00       	mov    $0x417560,%esi
  403029:	48 89 c7             	mov    %rax,%rdi
  40302c:	b8 00 00 00 00       	mov    $0x0,%eax
  403031:	e8 0a f3 ff ff       	callq  402340 <fprintf@plt>
  403036:	8b 45 fc             	mov    -0x4(%rbp),%eax
  403039:	f7 d8                	neg    %eax
  40303b:	83 f8 11             	cmp    $0x11,%eax
  40303e:	7f 07                	jg     403047 <xdp_link_attach+0xd9>
  403040:	83 f8 10             	cmp    $0x10,%eax
  403043:	7d 09                	jge    40304e <xdp_link_attach+0xe0>
  403045:	eb 46                	jmp    40308d <xdp_link_attach+0x11f>
  403047:	83 f8 5f             	cmp    $0x5f,%eax
  40304a:	74 22                	je     40306e <xdp_link_attach+0x100>
  40304c:	eb 3f                	jmp    40308d <xdp_link_attach+0x11f>
  40304e:	48 8b 05 cb 03 02 00 	mov    0x203cb(%rip),%rax        # 423420 <stderr@@GLIBC_2.2.5>
  403055:	48 89 c1             	mov    %rax,%rcx
  403058:	ba 3f 00 00 00       	mov    $0x3f,%edx
  40305d:	be 01 00 00 00       	mov    $0x1,%esi
  403062:	bf 98 75 41 00       	mov    $0x417598,%edi
  403067:	e8 e4 f4 ff ff       	callq  402550 <fwrite@plt>
  40306c:	eb 1f                	jmp    40308d <xdp_link_attach+0x11f>
  40306e:	48 8b 05 ab 03 02 00 	mov    0x203ab(%rip),%rax        # 423420 <stderr@@GLIBC_2.2.5>
  403075:	48 89 c1             	mov    %rax,%rcx
  403078:	ba 3d 00 00 00       	mov    $0x3d,%edx
  40307d:	be 01 00 00 00       	mov    $0x1,%esi
  403082:	bf d8 75 41 00       	mov    $0x4175d8,%edi
  403087:	e8 c4 f4 ff ff       	callq  402550 <fwrite@plt>
  40308c:	90                   	nop
  40308d:	b8 1e 00 00 00       	mov    $0x1e,%eax
  403092:	eb 05                	jmp    403099 <xdp_link_attach+0x12b>
  403094:	b8 00 00 00 00       	mov    $0x0,%eax
  403099:	c9                   	leaveq 
  40309a:	c3                   	retq   

000000000040309b <xdp_link_detach>:
  40309b:	55                   	push   %rbp
  40309c:	48 89 e5             	mov    %rsp,%rbp
  40309f:	48 83 ec 20          	sub    $0x20,%rsp
  4030a3:	89 7d ec             	mov    %edi,-0x14(%rbp)
  4030a6:	89 75 e8             	mov    %esi,-0x18(%rbp)
  4030a9:	89 55 e4             	mov    %edx,-0x1c(%rbp)
  4030ac:	8b 55 e8             	mov    -0x18(%rbp),%edx
  4030af:	48 8d 4d f8          	lea    -0x8(%rbp),%rcx
  4030b3:	8b 45 ec             	mov    -0x14(%rbp),%eax
  4030b6:	48 89 ce             	mov    %rcx,%rsi
  4030b9:	89 c7                	mov    %eax,%edi
  4030bb:	e8 00 d8 00 00       	callq  4108c0 <bpf_get_link_xdp_id>
  4030c0:	89 45 fc             	mov    %eax,-0x4(%rbp)
  4030c3:	83 7d fc 00          	cmpl   $0x0,-0x4(%rbp)
  4030c7:	74 39                	je     403102 <xdp_link_detach+0x67>
  4030c9:	8b 45 fc             	mov    -0x4(%rbp),%eax
  4030cc:	f7 d8                	neg    %eax
  4030ce:	89 c7                	mov    %eax,%edi
  4030d0:	e8 bb f4 ff ff       	callq  402590 <strerror@plt>
  4030d5:	48 89 c1             	mov    %rax,%rcx
  4030d8:	8b 45 fc             	mov    -0x4(%rbp),%eax
  4030db:	f7 d8                	neg    %eax
  4030dd:	89 c2                	mov    %eax,%edx
  4030df:	48 8b 05 3a 03 02 00 	mov    0x2033a(%rip),%rax        # 423420 <stderr@@GLIBC_2.2.5>
  4030e6:	be 18 76 41 00       	mov    $0x417618,%esi
  4030eb:	48 89 c7             	mov    %rax,%rdi
  4030ee:	b8 00 00 00 00       	mov    $0x0,%eax
  4030f3:	e8 48 f2 ff ff       	callq  402340 <fprintf@plt>
  4030f8:	b8 1e 00 00 00       	mov    $0x1e,%eax
  4030fd:	e9 f9 00 00 00       	jmpq   4031fb <xdp_link_detach+0x160>
  403102:	8b 45 f8             	mov    -0x8(%rbp),%eax
  403105:	85 c0                	test   %eax,%eax
  403107:	75 2d                	jne    403136 <xdp_link_detach+0x9b>
  403109:	8b 05 f5 01 02 00    	mov    0x201f5(%rip),%eax        # 423304 <verbose>
  40310f:	85 c0                	test   %eax,%eax
  403111:	74 19                	je     40312c <xdp_link_detach+0x91>
  403113:	8b 45 ec             	mov    -0x14(%rbp),%eax
  403116:	89 c2                	mov    %eax,%edx
  403118:	be 10 7a 41 00       	mov    $0x417a10,%esi
  40311d:	bf 48 76 41 00       	mov    $0x417648,%edi
  403122:	b8 00 00 00 00       	mov    $0x0,%eax
  403127:	e8 d4 f0 ff ff       	callq  402200 <printf@plt>
  40312c:	b8 00 00 00 00       	mov    $0x0,%eax
  403131:	e9 c5 00 00 00       	jmpq   4031fb <xdp_link_detach+0x160>
  403136:	83 7d e4 00          	cmpl   $0x0,-0x1c(%rbp)
  40313a:	74 3b                	je     403177 <xdp_link_detach+0xdc>
  40313c:	8b 45 f8             	mov    -0x8(%rbp),%eax
  40313f:	39 45 e4             	cmp    %eax,-0x1c(%rbp)
  403142:	74 33                	je     403177 <xdp_link_detach+0xdc>
  403144:	8b 4d f8             	mov    -0x8(%rbp),%ecx
  403147:	48 8b 05 d2 02 02 00 	mov    0x202d2(%rip),%rax        # 423420 <stderr@@GLIBC_2.2.5>
  40314e:	8b 55 e4             	mov    -0x1c(%rbp),%edx
  403151:	41 89 c8             	mov    %ecx,%r8d
  403154:	89 d1                	mov    %edx,%ecx
  403156:	ba 10 7a 41 00       	mov    $0x417a10,%edx
  40315b:	be 78 76 41 00       	mov    $0x417678,%esi
  403160:	48 89 c7             	mov    %rax,%rdi
  403163:	b8 00 00 00 00       	mov    $0x0,%eax
  403168:	e8 d3 f1 ff ff       	callq  402340 <fprintf@plt>
  40316d:	b8 01 00 00 00       	mov    $0x1,%eax
  403172:	e9 84 00 00 00       	jmpq   4031fb <xdp_link_detach+0x160>
  403177:	8b 55 e8             	mov    -0x18(%rbp),%edx
  40317a:	8b 45 ec             	mov    -0x14(%rbp),%eax
  40317d:	be ff ff ff ff       	mov    $0xffffffff,%esi
  403182:	89 c7                	mov    %eax,%edi
  403184:	e8 07 d4 00 00       	callq  410590 <bpf_set_link_xdp_fd>
  403189:	89 45 fc             	mov    %eax,-0x4(%rbp)
  40318c:	83 7d fc 00          	cmpl   $0x0,-0x4(%rbp)
  403190:	79 3c                	jns    4031ce <xdp_link_detach+0x133>
  403192:	8b 45 fc             	mov    -0x4(%rbp),%eax
  403195:	f7 d8                	neg    %eax
  403197:	89 c7                	mov    %eax,%edi
  403199:	e8 f2 f3 ff ff       	callq  402590 <strerror@plt>
  40319e:	48 89 c1             	mov    %rax,%rcx
  4031a1:	48 8b 05 78 02 02 00 	mov    0x20278(%rip),%rax        # 423420 <stderr@@GLIBC_2.2.5>
  4031a8:	8b 55 fc             	mov    -0x4(%rbp),%edx
  4031ab:	49 89 c8             	mov    %rcx,%r8
  4031ae:	89 d1                	mov    %edx,%ecx
  4031b0:	ba 10 7a 41 00       	mov    $0x417a10,%edx
  4031b5:	be b8 76 41 00       	mov    $0x4176b8,%esi
  4031ba:	48 89 c7             	mov    %rax,%rdi
  4031bd:	b8 00 00 00 00       	mov    $0x0,%eax
  4031c2:	e8 79 f1 ff ff       	callq  402340 <fprintf@plt>
  4031c7:	b8 1e 00 00 00       	mov    $0x1e,%eax
  4031cc:	eb 2d                	jmp    4031fb <xdp_link_detach+0x160>
  4031ce:	8b 05 30 01 02 00    	mov    0x20130(%rip),%eax        # 423304 <verbose>
  4031d4:	85 c0                	test   %eax,%eax
  4031d6:	74 1e                	je     4031f6 <xdp_link_detach+0x15b>
  4031d8:	8b 45 f8             	mov    -0x8(%rbp),%eax
  4031db:	8b 55 ec             	mov    -0x14(%rbp),%edx
  4031de:	89 d1                	mov    %edx,%ecx
  4031e0:	89 c2                	mov    %eax,%edx
  4031e2:	be 10 7a 41 00       	mov    $0x417a10,%esi
  4031e7:	bf e8 76 41 00       	mov    $0x4176e8,%edi
  4031ec:	b8 00 00 00 00       	mov    $0x0,%eax
  4031f1:	e8 0a f0 ff ff       	callq  402200 <printf@plt>
  4031f6:	b8 00 00 00 00       	mov    $0x0,%eax
  4031fb:	c9                   	leaveq 
  4031fc:	c3                   	retq   

00000000004031fd <load_bpf_object_file>:
  4031fd:	55                   	push   %rbp
  4031fe:	48 89 e5             	mov    %rsp,%rbp
  403201:	48 83 ec 40          	sub    $0x40,%rsp
  403205:	48 89 7d c8          	mov    %rdi,-0x38(%rbp)
  403209:	89 75 c4             	mov    %esi,-0x3c(%rbp)
  40320c:	c7 45 f8 ff ff ff ff 	movl   $0xffffffff,-0x8(%rbp)
  403213:	48 c7 45 d0 00 00 00 	movq   $0x0,-0x30(%rbp)
  40321a:	00 
  40321b:	48 c7 45 d8 00 00 00 	movq   $0x0,-0x28(%rbp)
  403222:	00 
  403223:	48 c7 45 e0 00 00 00 	movq   $0x0,-0x20(%rbp)
  40322a:	00 
  40322b:	48 c7 45 e8 00 00 00 	movq   $0x0,-0x18(%rbp)
  403232:	00 
  403233:	c7 45 d8 06 00 00 00 	movl   $0x6,-0x28(%rbp)
  40323a:	8b 45 c4             	mov    -0x3c(%rbp),%eax
  40323d:	89 45 e0             	mov    %eax,-0x20(%rbp)
  403240:	48 8b 45 c8          	mov    -0x38(%rbp),%rax
  403244:	48 89 45 d0          	mov    %rax,-0x30(%rbp)
  403248:	48 8d 55 f8          	lea    -0x8(%rbp),%rdx
  40324c:	48 8d 4d f0          	lea    -0x10(%rbp),%rcx
  403250:	48 8d 45 d0          	lea    -0x30(%rbp),%rax
  403254:	48 89 ce             	mov    %rcx,%rsi
  403257:	48 89 c7             	mov    %rax,%rdi
  40325a:	e8 71 cd 00 00       	callq  40ffd0 <bpf_prog_load_xattr>
  40325f:	89 45 fc             	mov    %eax,-0x4(%rbp)
  403262:	83 7d fc 00          	cmpl   $0x0,-0x4(%rbp)
  403266:	74 39                	je     4032a1 <load_bpf_object_file+0xa4>
  403268:	8b 45 fc             	mov    -0x4(%rbp),%eax
  40326b:	f7 d8                	neg    %eax
  40326d:	89 c7                	mov    %eax,%edi
  40326f:	e8 1c f3 ff ff       	callq  402590 <strerror@plt>
  403274:	48 89 c6             	mov    %rax,%rsi
  403277:	48 8b 05 a2 01 02 00 	mov    0x201a2(%rip),%rax        # 423420 <stderr@@GLIBC_2.2.5>
  40327e:	8b 4d fc             	mov    -0x4(%rbp),%ecx
  403281:	48 8b 55 c8          	mov    -0x38(%rbp),%rdx
  403285:	49 89 f0             	mov    %rsi,%r8
  403288:	be 20 77 41 00       	mov    $0x417720,%esi
  40328d:	48 89 c7             	mov    %rax,%rdi
  403290:	b8 00 00 00 00       	mov    $0x0,%eax
  403295:	e8 a6 f0 ff ff       	callq  402340 <fprintf@plt>
  40329a:	b8 00 00 00 00       	mov    $0x0,%eax
  40329f:	eb 04                	jmp    4032a5 <load_bpf_object_file+0xa8>
  4032a1:	48 8b 45 f0          	mov    -0x10(%rbp),%rax
  4032a5:	c9                   	leaveq 
  4032a6:	c3                   	retq   

00000000004032a7 <open_bpf_object>:
  4032a7:	55                   	push   %rbp
  4032a8:	48 89 e5             	mov    %rsp,%rbp
  4032ab:	48 83 ec 50          	sub    $0x50,%rsp
  4032af:	48 89 7d b8          	mov    %rdi,-0x48(%rbp)
  4032b3:	89 75 b4             	mov    %esi,-0x4c(%rbp)
  4032b6:	48 c7 45 e8 00 00 00 	movq   $0x0,-0x18(%rbp)
  4032bd:	00 
  4032be:	48 8b 45 b8          	mov    -0x48(%rbp),%rax
  4032c2:	48 89 45 c0          	mov    %rax,-0x40(%rbp)
  4032c6:	c7 45 c8 06 00 00 00 	movl   $0x6,-0x38(%rbp)
  4032cd:	48 8d 45 c0          	lea    -0x40(%rbp),%rax
  4032d1:	48 89 c7             	mov    %rax,%rdi
  4032d4:	e8 57 a5 00 00       	callq  40d830 <bpf_object__open_xattr>
  4032d9:	48 89 45 e0          	mov    %rax,-0x20(%rbp)
  4032dd:	48 8b 45 e0          	mov    -0x20(%rbp),%rax
  4032e1:	48 89 c7             	mov    %rax,%rdi
  4032e4:	e8 59 fc ff ff       	callq  402f42 <IS_ERR_OR_NULL>
  4032e9:	84 c0                	test   %al,%al
  4032eb:	74 4d                	je     40333a <open_bpf_object+0x93>
  4032ed:	48 8b 45 e0          	mov    -0x20(%rbp),%rax
  4032f1:	48 89 c7             	mov    %rax,%rdi
  4032f4:	e8 3b fc ff ff       	callq  402f34 <PTR_ERR>
  4032f9:	f7 d8                	neg    %eax
  4032fb:	89 45 dc             	mov    %eax,-0x24(%rbp)
  4032fe:	8b 45 dc             	mov    -0x24(%rbp),%eax
  403301:	f7 d8                	neg    %eax
  403303:	89 c7                	mov    %eax,%edi
  403305:	e8 86 f2 ff ff       	callq  402590 <strerror@plt>
  40330a:	48 89 c6             	mov    %rax,%rsi
  40330d:	48 8b 05 0c 01 02 00 	mov    0x2010c(%rip),%rax        # 423420 <stderr@@GLIBC_2.2.5>
  403314:	8b 4d dc             	mov    -0x24(%rbp),%ecx
  403317:	48 8b 55 b8          	mov    -0x48(%rbp),%rdx
  40331b:	49 89 f0             	mov    %rsi,%r8
  40331e:	be 48 77 41 00       	mov    $0x417748,%esi
  403323:	48 89 c7             	mov    %rax,%rdi
  403326:	b8 00 00 00 00       	mov    $0x0,%eax
  40332b:	e8 10 f0 ff ff       	callq  402340 <fprintf@plt>
  403330:	b8 00 00 00 00       	mov    $0x0,%eax
  403335:	e9 ee 00 00 00       	jmpq   403428 <open_bpf_object+0x181>
  40333a:	48 8b 45 e0          	mov    -0x20(%rbp),%rax
  40333e:	48 89 c6             	mov    %rax,%rsi
  403341:	bf 00 00 00 00       	mov    $0x0,%edi
  403346:	e8 e5 6f 00 00       	callq  40a330 <bpf_program__next>
  40334b:	48 89 45 f0          	mov    %rax,-0x10(%rbp)
  40334f:	eb 48                	jmp    403399 <open_bpf_object+0xf2>
  403351:	48 8b 45 f0          	mov    -0x10(%rbp),%rax
  403355:	be 06 00 00 00       	mov    $0x6,%esi
  40335a:	48 89 c7             	mov    %rax,%rdi
  40335d:	e8 9e 74 00 00       	callq  40a800 <bpf_program__set_type>
  403362:	8b 55 b4             	mov    -0x4c(%rbp),%edx
  403365:	48 8b 45 f0          	mov    -0x10(%rbp),%rax
  403369:	89 d6                	mov    %edx,%esi
  40336b:	48 89 c7             	mov    %rax,%rdi
  40336e:	e8 ed 72 00 00       	callq  40a660 <bpf_program__set_ifindex>
  403373:	48 83 7d e8 00       	cmpq   $0x0,-0x18(%rbp)
  403378:	75 08                	jne    403382 <open_bpf_object+0xdb>
  40337a:	48 8b 45 f0          	mov    -0x10(%rbp),%rax
  40337e:	48 89 45 e8          	mov    %rax,-0x18(%rbp)
  403382:	48 8b 55 e0          	mov    -0x20(%rbp),%rdx
  403386:	48 8b 45 f0          	mov    -0x10(%rbp),%rax
  40338a:	48 89 d6             	mov    %rdx,%rsi
  40338d:	48 89 c7             	mov    %rax,%rdi
  403390:	e8 9b 6f 00 00       	callq  40a330 <bpf_program__next>
  403395:	48 89 45 f0          	mov    %rax,-0x10(%rbp)
  403399:	48 83 7d f0 00       	cmpq   $0x0,-0x10(%rbp)
  40339e:	75 b1                	jne    403351 <open_bpf_object+0xaa>
  4033a0:	48 8b 45 e0          	mov    -0x20(%rbp),%rax
  4033a4:	48 89 c6             	mov    %rax,%rsi
  4033a7:	bf 00 00 00 00       	mov    $0x0,%edi
  4033ac:	e8 ef a6 00 00       	callq  40daa0 <bpf_map__next>
  4033b1:	48 89 45 f8          	mov    %rax,-0x8(%rbp)
  4033b5:	eb 3b                	jmp    4033f2 <open_bpf_object+0x14b>
  4033b7:	48 8b 45 f8          	mov    -0x8(%rbp),%rax
  4033bb:	48 89 c7             	mov    %rax,%rdi
  4033be:	e8 4d a6 00 00       	callq  40da10 <bpf_map__is_offload_neutral>
  4033c3:	83 f0 01             	xor    $0x1,%eax
  4033c6:	84 c0                	test   %al,%al
  4033c8:	74 11                	je     4033db <open_bpf_object+0x134>
  4033ca:	8b 55 b4             	mov    -0x4c(%rbp),%edx
  4033cd:	48 8b 45 f8          	mov    -0x8(%rbp),%rax
  4033d1:	89 d6                	mov    %edx,%esi
  4033d3:	48 89 c7             	mov    %rax,%rdi
  4033d6:	e8 55 a6 00 00       	callq  40da30 <bpf_map__set_ifindex>
  4033db:	48 8b 55 e0          	mov    -0x20(%rbp),%rdx
  4033df:	48 8b 45 f8          	mov    -0x8(%rbp),%rax
  4033e3:	48 89 d6             	mov    %rdx,%rsi
  4033e6:	48 89 c7             	mov    %rax,%rdi
  4033e9:	e8 b2 a6 00 00       	callq  40daa0 <bpf_map__next>
  4033ee:	48 89 45 f8          	mov    %rax,-0x8(%rbp)
  4033f2:	48 83 7d f8 00       	cmpq   $0x0,-0x8(%rbp)
  4033f7:	75 be                	jne    4033b7 <open_bpf_object+0x110>
  4033f9:	48 83 7d e8 00       	cmpq   $0x0,-0x18(%rbp)
  4033fe:	75 24                	jne    403424 <open_bpf_object+0x17d>
  403400:	48 8b 05 19 00 02 00 	mov    0x20019(%rip),%rax        # 423420 <stderr@@GLIBC_2.2.5>
  403407:	48 8b 55 b8          	mov    -0x48(%rbp),%rdx
  40340b:	be 70 77 41 00       	mov    $0x417770,%esi
  403410:	48 89 c7             	mov    %rax,%rdi
  403413:	b8 00 00 00 00       	mov    $0x0,%eax
  403418:	e8 23 ef ff ff       	callq  402340 <fprintf@plt>
  40341d:	b8 00 00 00 00       	mov    $0x0,%eax
  403422:	eb 04                	jmp    403428 <open_bpf_object+0x181>
  403424:	48 8b 45 e0          	mov    -0x20(%rbp),%rax
  403428:	c9                   	leaveq 
  403429:	c3                   	retq   

000000000040342a <reuse_maps>:
  40342a:	55                   	push   %rbp
  40342b:	48 89 e5             	mov    %rsp,%rbp
  40342e:	48 81 ec 30 10 00 00 	sub    $0x1030,%rsp
  403435:	48 89 bd d8 ef ff ff 	mov    %rdi,-0x1028(%rbp)
  40343c:	48 89 b5 d0 ef ff ff 	mov    %rsi,-0x1030(%rbp)
  403443:	48 83 bd d8 ef ff ff 	cmpq   $0x0,-0x1028(%rbp)
  40344a:	00 
  40344b:	75 0a                	jne    403457 <reuse_maps+0x2d>
  40344d:	b8 fe ff ff ff       	mov    $0xfffffffe,%eax
  403452:	e9 f1 00 00 00       	jmpq   403548 <reuse_maps+0x11e>
  403457:	48 83 bd d0 ef ff ff 	cmpq   $0x0,-0x1030(%rbp)
  40345e:	00 
  40345f:	75 0a                	jne    40346b <reuse_maps+0x41>
  403461:	b8 ea ff ff ff       	mov    $0xffffffea,%eax
  403466:	e9 dd 00 00 00       	jmpq   403548 <reuse_maps+0x11e>
  40346b:	48 8b 85 d8 ef ff ff 	mov    -0x1028(%rbp),%rax
  403472:	48 89 c6             	mov    %rax,%rsi
  403475:	bf 00 00 00 00       	mov    $0x0,%edi
  40347a:	e8 21 a6 00 00       	callq  40daa0 <bpf_map__next>
  40347f:	48 89 45 f8          	mov    %rax,-0x8(%rbp)
  403483:	e9 b0 00 00 00       	jmpq   403538 <reuse_maps+0x10e>
  403488:	48 8b 45 f8          	mov    -0x8(%rbp),%rax
  40348c:	48 89 c7             	mov    %rax,%rdi
  40348f:	e8 dc a4 00 00       	callq  40d970 <bpf_map__name>
  403494:	48 89 c1             	mov    %rax,%rcx
  403497:	48 8b 95 d0 ef ff ff 	mov    -0x1030(%rbp),%rdx
  40349e:	48 8d 85 e0 ef ff ff 	lea    -0x1020(%rbp),%rax
  4034a5:	49 89 c8             	mov    %rcx,%r8
  4034a8:	48 89 d1             	mov    %rdx,%rcx
  4034ab:	ba 93 77 41 00       	mov    $0x417793,%edx
  4034b0:	be 00 10 00 00       	mov    $0x1000,%esi
  4034b5:	48 89 c7             	mov    %rax,%rdi
  4034b8:	b8 00 00 00 00       	mov    $0x0,%eax
  4034bd:	e8 5e ed ff ff       	callq  402220 <snprintf@plt>
  4034c2:	89 45 f4             	mov    %eax,-0xc(%rbp)
  4034c5:	83 7d f4 00          	cmpl   $0x0,-0xc(%rbp)
  4034c9:	79 07                	jns    4034d2 <reuse_maps+0xa8>
  4034cb:	b8 ea ff ff ff       	mov    $0xffffffea,%eax
  4034d0:	eb 76                	jmp    403548 <reuse_maps+0x11e>
  4034d2:	81 7d f4 ff 0f 00 00 	cmpl   $0xfff,-0xc(%rbp)
  4034d9:	7e 07                	jle    4034e2 <reuse_maps+0xb8>
  4034db:	b8 dc ff ff ff       	mov    $0xffffffdc,%eax
  4034e0:	eb 66                	jmp    403548 <reuse_maps+0x11e>
  4034e2:	48 8d 85 e0 ef ff ff 	lea    -0x1020(%rbp),%rax
  4034e9:	48 89 c7             	mov    %rax,%rdi
  4034ec:	e8 cf 25 00 00       	callq  405ac0 <bpf_obj_get>
  4034f1:	89 45 f0             	mov    %eax,-0x10(%rbp)
  4034f4:	83 7d f0 00          	cmpl   $0x0,-0x10(%rbp)
  4034f8:	79 05                	jns    4034ff <reuse_maps+0xd5>
  4034fa:	8b 45 f0             	mov    -0x10(%rbp),%eax
  4034fd:	eb 49                	jmp    403548 <reuse_maps+0x11e>
  4034ff:	8b 55 f0             	mov    -0x10(%rbp),%edx
  403502:	48 8b 45 f8          	mov    -0x8(%rbp),%rax
  403506:	89 d6                	mov    %edx,%esi
  403508:	48 89 c7             	mov    %rax,%rdi
  40350b:	e8 60 5e 00 00       	callq  409370 <bpf_map__reuse_fd>
  403510:	89 45 ec             	mov    %eax,-0x14(%rbp)
  403513:	83 7d ec 00          	cmpl   $0x0,-0x14(%rbp)
  403517:	74 05                	je     40351e <reuse_maps+0xf4>
  403519:	8b 45 ec             	mov    -0x14(%rbp),%eax
  40351c:	eb 2a                	jmp    403548 <reuse_maps+0x11e>
  40351e:	48 8b 95 d8 ef ff ff 	mov    -0x1028(%rbp),%rdx
  403525:	48 8b 45 f8          	mov    -0x8(%rbp),%rax
  403529:	48 89 d6             	mov    %rdx,%rsi
  40352c:	48 89 c7             	mov    %rax,%rdi
  40352f:	e8 6c a5 00 00       	callq  40daa0 <bpf_map__next>
  403534:	48 89 45 f8          	mov    %rax,-0x8(%rbp)
  403538:	48 83 7d f8 00       	cmpq   $0x0,-0x8(%rbp)
  40353d:	0f 85 45 ff ff ff    	jne    403488 <reuse_maps+0x5e>
  403543:	b8 00 00 00 00       	mov    $0x0,%eax
  403548:	c9                   	leaveq 
  403549:	c3                   	retq   

000000000040354a <load_bpf_object_file_reuse_maps>:
  40354a:	55                   	push   %rbp
  40354b:	48 89 e5             	mov    %rsp,%rbp
  40354e:	48 83 ec 30          	sub    $0x30,%rsp
  403552:	48 89 7d e8          	mov    %rdi,-0x18(%rbp)
  403556:	89 75 e4             	mov    %esi,-0x1c(%rbp)
  403559:	48 89 55 d8          	mov    %rdx,-0x28(%rbp)
  40355d:	8b 55 e4             	mov    -0x1c(%rbp),%edx
  403560:	48 8b 45 e8          	mov    -0x18(%rbp),%rax
  403564:	89 d6                	mov    %edx,%esi
  403566:	48 89 c7             	mov    %rax,%rdi
  403569:	e8 39 fd ff ff       	callq  4032a7 <open_bpf_object>
  40356e:	48 89 45 f8          	mov    %rax,-0x8(%rbp)
  403572:	48 83 7d f8 00       	cmpq   $0x0,-0x8(%rbp)
  403577:	75 27                	jne    4035a0 <load_bpf_object_file_reuse_maps+0x56>
  403579:	48 8b 05 a0 fe 01 00 	mov    0x1fea0(%rip),%rax        # 423420 <stderr@@GLIBC_2.2.5>
  403580:	48 8b 55 e8          	mov    -0x18(%rbp),%rdx
  403584:	be a0 77 41 00       	mov    $0x4177a0,%esi
  403589:	48 89 c7             	mov    %rax,%rdi
  40358c:	b8 00 00 00 00       	mov    $0x0,%eax
  403591:	e8 aa ed ff ff       	callq  402340 <fprintf@plt>
  403596:	b8 00 00 00 00       	mov    $0x0,%eax
  40359b:	e9 96 00 00 00       	jmpq   403636 <load_bpf_object_file_reuse_maps+0xec>
  4035a0:	48 8b 55 d8          	mov    -0x28(%rbp),%rdx
  4035a4:	48 8b 45 f8          	mov    -0x8(%rbp),%rax
  4035a8:	48 89 d6             	mov    %rdx,%rsi
  4035ab:	48 89 c7             	mov    %rax,%rdi
  4035ae:	e8 77 fe ff ff       	callq  40342a <reuse_maps>
  4035b3:	89 45 f4             	mov    %eax,-0xc(%rbp)
  4035b6:	83 7d f4 00          	cmpl   $0x0,-0xc(%rbp)
  4035ba:	74 28                	je     4035e4 <load_bpf_object_file_reuse_maps+0x9a>
  4035bc:	48 8b 05 5d fe 01 00 	mov    0x1fe5d(%rip),%rax        # 423420 <stderr@@GLIBC_2.2.5>
  4035c3:	48 8b 4d d8          	mov    -0x28(%rbp),%rcx
  4035c7:	48 8b 55 e8          	mov    -0x18(%rbp),%rdx
  4035cb:	be c0 77 41 00       	mov    $0x4177c0,%esi
  4035d0:	48 89 c7             	mov    %rax,%rdi
  4035d3:	b8 00 00 00 00       	mov    $0x0,%eax
  4035d8:	e8 63 ed ff ff       	callq  402340 <fprintf@plt>
  4035dd:	b8 00 00 00 00       	mov    $0x0,%eax
  4035e2:	eb 52                	jmp    403636 <load_bpf_object_file_reuse_maps+0xec>
  4035e4:	48 8b 45 f8          	mov    -0x8(%rbp),%rax
  4035e8:	48 89 c7             	mov    %rax,%rdi
  4035eb:	e8 c0 c9 00 00       	callq  40ffb0 <bpf_object__load>
  4035f0:	89 45 f4             	mov    %eax,-0xc(%rbp)
  4035f3:	83 7d f4 00          	cmpl   $0x0,-0xc(%rbp)
  4035f7:	74 39                	je     403632 <load_bpf_object_file_reuse_maps+0xe8>
  4035f9:	8b 45 f4             	mov    -0xc(%rbp),%eax
  4035fc:	f7 d8                	neg    %eax
  4035fe:	89 c7                	mov    %eax,%edi
  403600:	e8 8b ef ff ff       	callq  402590 <strerror@plt>
  403605:	48 89 c6             	mov    %rax,%rsi
  403608:	48 8b 05 11 fe 01 00 	mov    0x1fe11(%rip),%rax        # 423420 <stderr@@GLIBC_2.2.5>
  40360f:	8b 4d f4             	mov    -0xc(%rbp),%ecx
  403612:	48 8b 55 e8          	mov    -0x18(%rbp),%rdx
  403616:	49 89 f0             	mov    %rsi,%r8
  403619:	be 20 77 41 00       	mov    $0x417720,%esi
  40361e:	48 89 c7             	mov    %rax,%rdi
  403621:	b8 00 00 00 00       	mov    $0x0,%eax
  403626:	e8 15 ed ff ff       	callq  402340 <fprintf@plt>
  40362b:	b8 00 00 00 00       	mov    $0x0,%eax
  403630:	eb 04                	jmp    403636 <load_bpf_object_file_reuse_maps+0xec>
  403632:	48 8b 45 f8          	mov    -0x8(%rbp),%rax
  403636:	c9                   	leaveq 
  403637:	c3                   	retq   

0000000000403638 <load_bpf_and_xdp_attach>:
  403638:	55                   	push   %rbp
  403639:	48 89 e5             	mov    %rsp,%rbp
  40363c:	48 83 ec 30          	sub    $0x30,%rsp
  403640:	48 89 7d d8          	mov    %rdi,-0x28(%rbp)
  403644:	c7 45 ec 00 00 00 00 	movl   $0x0,-0x14(%rbp)
  40364b:	c7 45 e8 ff ff ff ff 	movl   $0xffffffff,-0x18(%rbp)
  403652:	48 8b 45 d8          	mov    -0x28(%rbp),%rax
  403656:	8b 00                	mov    (%rax),%eax
  403658:	83 e0 08             	and    $0x8,%eax
  40365b:	85 c0                	test   %eax,%eax
  40365d:	74 0a                	je     403669 <load_bpf_and_xdp_attach+0x31>
  40365f:	48 8b 45 d8          	mov    -0x28(%rbp),%rax
  403663:	8b 40 04             	mov    0x4(%rax),%eax
  403666:	89 45 ec             	mov    %eax,-0x14(%rbp)
  403669:	48 8b 45 d8          	mov    -0x28(%rbp),%rax
  40366d:	0f b6 40 41          	movzbl 0x41(%rax),%eax
  403671:	84 c0                	test   %al,%al
  403673:	74 26                	je     40369b <load_bpf_and_xdp_attach+0x63>
  403675:	48 8b 45 d8          	mov    -0x28(%rbp),%rax
  403679:	48 8d 50 42          	lea    0x42(%rax),%rdx
  40367d:	48 8b 45 d8          	mov    -0x28(%rbp),%rax
  403681:	48 8d 88 42 02 00 00 	lea    0x242(%rax),%rcx
  403688:	8b 45 ec             	mov    -0x14(%rbp),%eax
  40368b:	89 c6                	mov    %eax,%esi
  40368d:	48 89 cf             	mov    %rcx,%rdi
  403690:	e8 b5 fe ff ff       	callq  40354a <load_bpf_object_file_reuse_maps>
  403695:	48 89 45 f0          	mov    %rax,-0x10(%rbp)
  403699:	eb 1c                	jmp    4036b7 <load_bpf_and_xdp_attach+0x7f>
  40369b:	48 8b 45 d8          	mov    -0x28(%rbp),%rax
  40369f:	48 8d 90 42 02 00 00 	lea    0x242(%rax),%rdx
  4036a6:	8b 45 ec             	mov    -0x14(%rbp),%eax
  4036a9:	89 c6                	mov    %eax,%esi
  4036ab:	48 89 d7             	mov    %rdx,%rdi
  4036ae:	e8 4a fb ff ff       	callq  4031fd <load_bpf_object_file>
  4036b3:	48 89 45 f0          	mov    %rax,-0x10(%rbp)
  4036b7:	48 83 7d f0 00       	cmpq   $0x0,-0x10(%rbp)
  4036bc:	75 2e                	jne    4036ec <load_bpf_and_xdp_attach+0xb4>
  4036be:	48 8b 45 d8          	mov    -0x28(%rbp),%rax
  4036c2:	48 8d 90 42 02 00 00 	lea    0x242(%rax),%rdx
  4036c9:	48 8b 05 50 fd 01 00 	mov    0x1fd50(%rip),%rax        # 423420 <stderr@@GLIBC_2.2.5>
  4036d0:	be f5 77 41 00       	mov    $0x4177f5,%esi
  4036d5:	48 89 c7             	mov    %rax,%rdi
  4036d8:	b8 00 00 00 00       	mov    $0x0,%eax
  4036dd:	e8 5e ec ff ff       	callq  402340 <fprintf@plt>
  4036e2:	bf 28 00 00 00       	mov    $0x28,%edi
  4036e7:	e8 54 ee ff ff       	callq  402540 <exit@plt>
  4036ec:	48 8b 45 d8          	mov    -0x28(%rbp),%rax
  4036f0:	0f b6 80 42 04 00 00 	movzbl 0x442(%rax),%eax
  4036f7:	84 c0                	test   %al,%al
  4036f9:	74 20                	je     40371b <load_bpf_and_xdp_attach+0xe3>
  4036fb:	48 8b 45 d8          	mov    -0x28(%rbp),%rax
  4036ff:	48 8d 90 42 04 00 00 	lea    0x442(%rax),%rdx
  403706:	48 8b 45 f0          	mov    -0x10(%rbp),%rax
  40370a:	48 89 d6             	mov    %rdx,%rsi
  40370d:	48 89 c7             	mov    %rax,%rdi
  403710:	e8 5b 6c 00 00       	callq  40a370 <bpf_object__find_program_by_title>
  403715:	48 89 45 f8          	mov    %rax,-0x8(%rbp)
  403719:	eb 15                	jmp    403730 <load_bpf_and_xdp_attach+0xf8>
  40371b:	48 8b 45 f0          	mov    -0x10(%rbp),%rax
  40371f:	48 89 c6             	mov    %rax,%rsi
  403722:	bf 00 00 00 00       	mov    $0x0,%edi
  403727:	e8 04 6c 00 00       	callq  40a330 <bpf_program__next>
  40372c:	48 89 45 f8          	mov    %rax,-0x8(%rbp)
  403730:	48 83 7d f8 00       	cmpq   $0x0,-0x8(%rbp)
  403735:	75 2e                	jne    403765 <load_bpf_and_xdp_attach+0x12d>
  403737:	48 8b 45 d8          	mov    -0x28(%rbp),%rax
  40373b:	48 8d 90 42 04 00 00 	lea    0x442(%rax),%rdx
  403742:	48 8b 05 d7 fc 01 00 	mov    0x1fcd7(%rip),%rax        # 423420 <stderr@@GLIBC_2.2.5>
  403749:	be 10 78 41 00       	mov    $0x417810,%esi
  40374e:	48 89 c7             	mov    %rax,%rdi
  403751:	b8 00 00 00 00       	mov    $0x0,%eax
  403756:	e8 e5 eb ff ff       	callq  402340 <fprintf@plt>
  40375b:	bf 28 00 00 00       	mov    $0x28,%edi
  403760:	e8 db ed ff ff       	callq  402540 <exit@plt>
  403765:	48 8b 45 f8          	mov    -0x8(%rbp),%rax
  403769:	be 00 00 00 00       	mov    $0x0,%esi
  40376e:	48 89 c7             	mov    %rax,%rdi
  403771:	e8 fa 6e 00 00       	callq  40a670 <bpf_program__title>
  403776:	48 89 c1             	mov    %rax,%rcx
  403779:	48 8b 45 d8          	mov    -0x28(%rbp),%rax
  40377d:	48 05 42 04 00 00    	add    $0x442,%rax
  403783:	ba 20 00 00 00       	mov    $0x20,%edx
  403788:	48 89 ce             	mov    %rcx,%rsi
  40378b:	48 89 c7             	mov    %rax,%rdi
  40378e:	e8 1d e9 ff ff       	callq  4020b0 <strncpy@plt>
  403793:	48 8b 45 f8          	mov    -0x8(%rbp),%rax
  403797:	48 89 c7             	mov    %rax,%rdi
  40379a:	e8 41 70 00 00       	callq  40a7e0 <bpf_program__fd>
  40379f:	89 45 e8             	mov    %eax,-0x18(%rbp)
  4037a2:	83 7d e8 00          	cmpl   $0x0,-0x18(%rbp)
  4037a6:	7f 28                	jg     4037d0 <load_bpf_and_xdp_attach+0x198>
  4037a8:	48 8b 05 71 fc 01 00 	mov    0x1fc71(%rip),%rax        # 423420 <stderr@@GLIBC_2.2.5>
  4037af:	48 89 c1             	mov    %rax,%rcx
  4037b2:	ba 1c 00 00 00       	mov    $0x1c,%edx
  4037b7:	be 01 00 00 00       	mov    $0x1,%esi
  4037bc:	bf 42 78 41 00       	mov    $0x417842,%edi
  4037c1:	e8 8a ed ff ff       	callq  402550 <fwrite@plt>
  4037c6:	bf 28 00 00 00       	mov    $0x28,%edi
  4037cb:	e8 70 ed ff ff       	callq  402540 <exit@plt>
  4037d0:	48 8b 45 d8          	mov    -0x28(%rbp),%rax
  4037d4:	8b 08                	mov    (%rax),%ecx
  4037d6:	48 8b 45 d8          	mov    -0x28(%rbp),%rax
  4037da:	8b 40 04             	mov    0x4(%rax),%eax
  4037dd:	8b 55 e8             	mov    -0x18(%rbp),%edx
  4037e0:	89 ce                	mov    %ecx,%esi
  4037e2:	89 c7                	mov    %eax,%edi
  4037e4:	e8 85 f7 ff ff       	callq  402f6e <xdp_link_attach>
  4037e9:	89 45 e4             	mov    %eax,-0x1c(%rbp)
  4037ec:	83 7d e4 00          	cmpl   $0x0,-0x1c(%rbp)
  4037f0:	74 0a                	je     4037fc <load_bpf_and_xdp_attach+0x1c4>
  4037f2:	8b 45 e4             	mov    -0x1c(%rbp),%eax
  4037f5:	89 c7                	mov    %eax,%edi
  4037f7:	e8 44 ed ff ff       	callq  402540 <exit@plt>
  4037fc:	48 8b 45 f0          	mov    -0x10(%rbp),%rax
  403800:	c9                   	leaveq 
  403801:	c3                   	retq   

0000000000403802 <action2str>:
  403802:	55                   	push   %rbp
  403803:	48 89 e5             	mov    %rsp,%rbp
  403806:	89 7d fc             	mov    %edi,-0x4(%rbp)
  403809:	83 7d fc 05          	cmpl   $0x5,-0x4(%rbp)
  40380d:	77 0d                	ja     40381c <action2str+0x1a>
  40380f:	8b 45 fc             	mov    -0x4(%rbp),%eax
  403812:	48 8b 04 c5 20 33 42 	mov    0x423320(,%rax,8),%rax
  403819:	00 
  40381a:	eb 05                	jmp    403821 <action2str+0x1f>
  40381c:	b8 00 00 00 00       	mov    $0x0,%eax
  403821:	5d                   	pop    %rbp
  403822:	c3                   	retq   

0000000000403823 <check_map_fd_info>:
  403823:	55                   	push   %rbp
  403824:	48 89 e5             	mov    %rsp,%rbp
  403827:	48 83 ec 10          	sub    $0x10,%rsp
  40382b:	48 89 7d f8          	mov    %rdi,-0x8(%rbp)
  40382f:	48 89 75 f0          	mov    %rsi,-0x10(%rbp)
  403833:	48 8b 45 f0          	mov    -0x10(%rbp),%rax
  403837:	8b 40 08             	mov    0x8(%rax),%eax
  40383a:	85 c0                	test   %eax,%eax
  40383c:	74 4d                	je     40388b <check_map_fd_info+0x68>
  40383e:	48 8b 45 f0          	mov    -0x10(%rbp),%rax
  403842:	8b 50 08             	mov    0x8(%rax),%edx
  403845:	48 8b 45 f8          	mov    -0x8(%rbp),%rax
  403849:	8b 40 08             	mov    0x8(%rax),%eax
  40384c:	39 c2                	cmp    %eax,%edx
  40384e:	74 3b                	je     40388b <check_map_fd_info+0x68>
  403850:	48 8b 45 f0          	mov    -0x10(%rbp),%rax
  403854:	8b 48 08             	mov    0x8(%rax),%ecx
  403857:	48 8b 45 f8          	mov    -0x8(%rbp),%rax
  40385b:	8b 50 08             	mov    0x8(%rax),%edx
  40385e:	48 8b 05 bb fb 01 00 	mov    0x1fbbb(%rip),%rax        # 423420 <stderr@@GLIBC_2.2.5>
  403865:	41 89 c8             	mov    %ecx,%r8d
  403868:	89 d1                	mov    %edx,%ecx
  40386a:	ba 20 7a 41 00       	mov    $0x417a20,%edx
  40386f:	be a0 78 41 00       	mov    $0x4178a0,%esi
  403874:	48 89 c7             	mov    %rax,%rdi
  403877:	b8 00 00 00 00       	mov    $0x0,%eax
  40387c:	e8 bf ea ff ff       	callq  402340 <fprintf@plt>
  403881:	b8 01 00 00 00       	mov    $0x1,%eax
  403886:	e9 02 01 00 00       	jmpq   40398d <check_map_fd_info+0x16a>
  40388b:	48 8b 45 f0          	mov    -0x10(%rbp),%rax
  40388f:	8b 40 0c             	mov    0xc(%rax),%eax
  403892:	85 c0                	test   %eax,%eax
  403894:	74 4d                	je     4038e3 <check_map_fd_info+0xc0>
  403896:	48 8b 45 f0          	mov    -0x10(%rbp),%rax
  40389a:	8b 50 0c             	mov    0xc(%rax),%edx
  40389d:	48 8b 45 f8          	mov    -0x8(%rbp),%rax
  4038a1:	8b 40 0c             	mov    0xc(%rax),%eax
  4038a4:	39 c2                	cmp    %eax,%edx
  4038a6:	74 3b                	je     4038e3 <check_map_fd_info+0xc0>
  4038a8:	48 8b 45 f0          	mov    -0x10(%rbp),%rax
  4038ac:	8b 48 0c             	mov    0xc(%rax),%ecx
  4038af:	48 8b 45 f8          	mov    -0x8(%rbp),%rax
  4038b3:	8b 50 0c             	mov    0xc(%rax),%edx
  4038b6:	48 8b 05 63 fb 01 00 	mov    0x1fb63(%rip),%rax        # 423420 <stderr@@GLIBC_2.2.5>
  4038bd:	41 89 c8             	mov    %ecx,%r8d
  4038c0:	89 d1                	mov    %edx,%ecx
  4038c2:	ba 20 7a 41 00       	mov    $0x417a20,%edx
  4038c7:	be d8 78 41 00       	mov    $0x4178d8,%esi
  4038cc:	48 89 c7             	mov    %rax,%rdi
  4038cf:	b8 00 00 00 00       	mov    $0x0,%eax
  4038d4:	e8 67 ea ff ff       	callq  402340 <fprintf@plt>
  4038d9:	b8 01 00 00 00       	mov    $0x1,%eax
  4038de:	e9 aa 00 00 00       	jmpq   40398d <check_map_fd_info+0x16a>
  4038e3:	48 8b 45 f0          	mov    -0x10(%rbp),%rax
  4038e7:	8b 40 10             	mov    0x10(%rax),%eax
  4038ea:	85 c0                	test   %eax,%eax
  4038ec:	74 4a                	je     403938 <check_map_fd_info+0x115>
  4038ee:	48 8b 45 f0          	mov    -0x10(%rbp),%rax
  4038f2:	8b 50 10             	mov    0x10(%rax),%edx
  4038f5:	48 8b 45 f8          	mov    -0x8(%rbp),%rax
  4038f9:	8b 40 10             	mov    0x10(%rax),%eax
  4038fc:	39 c2                	cmp    %eax,%edx
  4038fe:	74 38                	je     403938 <check_map_fd_info+0x115>
  403900:	48 8b 45 f0          	mov    -0x10(%rbp),%rax
  403904:	8b 48 10             	mov    0x10(%rax),%ecx
  403907:	48 8b 45 f8          	mov    -0x8(%rbp),%rax
  40390b:	8b 50 10             	mov    0x10(%rax),%edx
  40390e:	48 8b 05 0b fb 01 00 	mov    0x1fb0b(%rip),%rax        # 423420 <stderr@@GLIBC_2.2.5>
  403915:	41 89 c8             	mov    %ecx,%r8d
  403918:	89 d1                	mov    %edx,%ecx
  40391a:	ba 20 7a 41 00       	mov    $0x417a20,%edx
  40391f:	be 18 79 41 00       	mov    $0x417918,%esi
  403924:	48 89 c7             	mov    %rax,%rdi
  403927:	b8 00 00 00 00       	mov    $0x0,%eax
  40392c:	e8 0f ea ff ff       	callq  402340 <fprintf@plt>
  403931:	b8 01 00 00 00       	mov    $0x1,%eax
  403936:	eb 55                	jmp    40398d <check_map_fd_info+0x16a>
  403938:	48 8b 45 f0          	mov    -0x10(%rbp),%rax
  40393c:	8b 00                	mov    (%rax),%eax
  40393e:	85 c0                	test   %eax,%eax
  403940:	74 46                	je     403988 <check_map_fd_info+0x165>
  403942:	48 8b 45 f0          	mov    -0x10(%rbp),%rax
  403946:	8b 10                	mov    (%rax),%edx
  403948:	48 8b 45 f8          	mov    -0x8(%rbp),%rax
  40394c:	8b 00                	mov    (%rax),%eax
  40394e:	39 c2                	cmp    %eax,%edx
  403950:	74 36                	je     403988 <check_map_fd_info+0x165>
  403952:	48 8b 45 f0          	mov    -0x10(%rbp),%rax
  403956:	8b 08                	mov    (%rax),%ecx
  403958:	48 8b 45 f8          	mov    -0x8(%rbp),%rax
  40395c:	8b 10                	mov    (%rax),%edx
  40395e:	48 8b 05 bb fa 01 00 	mov    0x1fabb(%rip),%rax        # 423420 <stderr@@GLIBC_2.2.5>
  403965:	41 89 c8             	mov    %ecx,%r8d
  403968:	89 d1                	mov    %edx,%ecx
  40396a:	ba 20 7a 41 00       	mov    $0x417a20,%edx
  40396f:	be 58 79 41 00       	mov    $0x417958,%esi
  403974:	48 89 c7             	mov    %rax,%rdi
  403977:	b8 00 00 00 00       	mov    $0x0,%eax
  40397c:	e8 bf e9 ff ff       	callq  402340 <fprintf@plt>
  403981:	b8 01 00 00 00       	mov    $0x1,%eax
  403986:	eb 05                	jmp    40398d <check_map_fd_info+0x16a>
  403988:	b8 00 00 00 00       	mov    $0x0,%eax
  40398d:	c9                   	leaveq 
  40398e:	c3                   	retq   

000000000040398f <open_bpf_map_file>:
  40398f:	55                   	push   %rbp
  403990:	48 89 e5             	mov    %rsp,%rbp
  403993:	53                   	push   %rbx
  403994:	48 81 ec 48 10 00 00 	sub    $0x1048,%rsp
  40399b:	48 89 bd c8 ef ff ff 	mov    %rdi,-0x1038(%rbp)
  4039a2:	48 89 b5 c0 ef ff ff 	mov    %rsi,-0x1040(%rbp)
  4039a9:	48 89 95 b8 ef ff ff 	mov    %rdx,-0x1048(%rbp)
  4039b0:	c7 85 dc ef ff ff 50 	movl   $0x50,-0x1024(%rbp)
  4039b7:	00 00 00 
  4039ba:	48 8b 8d c0 ef ff ff 	mov    -0x1040(%rbp),%rcx
  4039c1:	48 8b 95 c8 ef ff ff 	mov    -0x1038(%rbp),%rdx
  4039c8:	48 8d 85 e0 ef ff ff 	lea    -0x1020(%rbp),%rax
  4039cf:	49 89 c8             	mov    %rcx,%r8
  4039d2:	48 89 d1             	mov    %rdx,%rcx
  4039d5:	ba 93 77 41 00       	mov    $0x417793,%edx
  4039da:	be 00 10 00 00       	mov    $0x1000,%esi
  4039df:	48 89 c7             	mov    %rax,%rdi
  4039e2:	b8 00 00 00 00       	mov    $0x0,%eax
  4039e7:	e8 34 e8 ff ff       	callq  402220 <snprintf@plt>
  4039ec:	89 45 ec             	mov    %eax,-0x14(%rbp)
  4039ef:	83 7d ec 00          	cmpl   $0x0,-0x14(%rbp)
  4039f3:	79 28                	jns    403a1d <open_bpf_map_file+0x8e>
  4039f5:	48 8b 05 24 fa 01 00 	mov    0x1fa24(%rip),%rax        # 423420 <stderr@@GLIBC_2.2.5>
  4039fc:	48 89 c1             	mov    %rax,%rcx
  4039ff:	ba 24 00 00 00       	mov    $0x24,%edx
  403a04:	be 01 00 00 00       	mov    $0x1,%esi
  403a09:	bf 90 79 41 00       	mov    $0x417990,%edi
  403a0e:	e8 3d eb ff ff       	callq  402550 <fwrite@plt>
  403a13:	b8 ff ff ff ff       	mov    $0xffffffff,%eax
  403a18:	e9 c2 00 00 00       	jmpq   403adf <open_bpf_map_file+0x150>
  403a1d:	48 8d 85 e0 ef ff ff 	lea    -0x1020(%rbp),%rax
  403a24:	48 89 c7             	mov    %rax,%rdi
  403a27:	e8 94 20 00 00       	callq  405ac0 <bpf_obj_get>
  403a2c:	89 45 e8             	mov    %eax,-0x18(%rbp)
  403a2f:	83 7d e8 00          	cmpl   $0x0,-0x18(%rbp)
  403a33:	79 40                	jns    403a75 <open_bpf_map_file+0xe6>
  403a35:	e8 56 e6 ff ff       	callq  402090 <__errno_location@plt>
  403a3a:	8b 00                	mov    (%rax),%eax
  403a3c:	89 c7                	mov    %eax,%edi
  403a3e:	e8 4d eb ff ff       	callq  402590 <strerror@plt>
  403a43:	48 89 c3             	mov    %rax,%rbx
  403a46:	e8 45 e6 ff ff       	callq  402090 <__errno_location@plt>
  403a4b:	8b 08                	mov    (%rax),%ecx
  403a4d:	48 8b 05 cc f9 01 00 	mov    0x1f9cc(%rip),%rax        # 423420 <stderr@@GLIBC_2.2.5>
  403a54:	48 8d 95 e0 ef ff ff 	lea    -0x1020(%rbp),%rdx
  403a5b:	49 89 d8             	mov    %rbx,%r8
  403a5e:	be b8 79 41 00       	mov    $0x4179b8,%esi
  403a63:	48 89 c7             	mov    %rax,%rdi
  403a66:	b8 00 00 00 00       	mov    $0x0,%eax
  403a6b:	e8 d0 e8 ff ff       	callq  402340 <fprintf@plt>
  403a70:	8b 45 e8             	mov    -0x18(%rbp),%eax
  403a73:	eb 6a                	jmp    403adf <open_bpf_map_file+0x150>
  403a75:	48 83 bd b8 ef ff ff 	cmpq   $0x0,-0x1048(%rbp)
  403a7c:	00 
  403a7d:	74 5d                	je     403adc <open_bpf_map_file+0x14d>
  403a7f:	48 8d 95 dc ef ff ff 	lea    -0x1024(%rbp),%rdx
  403a86:	48 8b 8d b8 ef ff ff 	mov    -0x1048(%rbp),%rcx
  403a8d:	8b 45 e8             	mov    -0x18(%rbp),%eax
  403a90:	48 89 ce             	mov    %rcx,%rsi
  403a93:	89 c7                	mov    %eax,%edi
  403a95:	e8 f6 23 00 00       	callq  405e90 <bpf_obj_get_info_by_fd>
  403a9a:	89 45 e4             	mov    %eax,-0x1c(%rbp)
  403a9d:	83 7d e4 00          	cmpl   $0x0,-0x1c(%rbp)
  403aa1:	74 39                	je     403adc <open_bpf_map_file+0x14d>
  403aa3:	e8 e8 e5 ff ff       	callq  402090 <__errno_location@plt>
  403aa8:	8b 00                	mov    (%rax),%eax
  403aaa:	89 c7                	mov    %eax,%edi
  403aac:	e8 df ea ff ff       	callq  402590 <strerror@plt>
  403ab1:	48 89 c2             	mov    %rax,%rdx
  403ab4:	48 8b 05 65 f9 01 00 	mov    0x1f965(%rip),%rax        # 423420 <stderr@@GLIBC_2.2.5>
  403abb:	48 89 d1             	mov    %rdx,%rcx
  403abe:	ba 40 7a 41 00       	mov    $0x417a40,%edx
  403ac3:	be f0 79 41 00       	mov    $0x4179f0,%esi
  403ac8:	48 89 c7             	mov    %rax,%rdi
  403acb:	b8 00 00 00 00       	mov    $0x0,%eax
  403ad0:	e8 6b e8 ff ff       	callq  402340 <fprintf@plt>
  403ad5:	b8 28 00 00 00       	mov    $0x28,%eax
  403ada:	eb 03                	jmp    403adf <open_bpf_map_file+0x150>
  403adc:	8b 45 e8             	mov    -0x18(%rbp),%eax
  403adf:	48 81 c4 48 10 00 00 	add    $0x1048,%rsp
  403ae6:	5b                   	pop    %rbx
  403ae7:	5d                   	pop    %rbp
  403ae8:	c3                   	retq   

0000000000403ae9 <xsk_ring_prod__fill_addr>:
  403ae9:	55                   	push   %rbp
  403aea:	48 89 e5             	mov    %rsp,%rbp
  403aed:	48 89 7d e8          	mov    %rdi,-0x18(%rbp)
  403af1:	89 75 e4             	mov    %esi,-0x1c(%rbp)
  403af4:	48 8b 45 e8          	mov    -0x18(%rbp),%rax
  403af8:	48 8b 40 20          	mov    0x20(%rax),%rax
  403afc:	48 89 45 f8          	mov    %rax,-0x8(%rbp)
  403b00:	48 8b 45 e8          	mov    -0x18(%rbp),%rax
  403b04:	8b 40 08             	mov    0x8(%rax),%eax
  403b07:	23 45 e4             	and    -0x1c(%rbp),%eax
  403b0a:	89 c0                	mov    %eax,%eax
  403b0c:	48 8d 14 c5 00 00 00 	lea    0x0(,%rax,8),%rdx
  403b13:	00 
  403b14:	48 8b 45 f8          	mov    -0x8(%rbp),%rax
  403b18:	48 01 d0             	add    %rdx,%rax
  403b1b:	5d                   	pop    %rbp
  403b1c:	c3                   	retq   

0000000000403b1d <xsk_ring_cons__comp_addr>:
  403b1d:	55                   	push   %rbp
  403b1e:	48 89 e5             	mov    %rsp,%rbp
  403b21:	48 89 7d e8          	mov    %rdi,-0x18(%rbp)
  403b25:	89 75 e4             	mov    %esi,-0x1c(%rbp)
  403b28:	48 8b 45 e8          	mov    -0x18(%rbp),%rax
  403b2c:	48 8b 40 20          	mov    0x20(%rax),%rax
  403b30:	48 89 45 f8          	mov    %rax,-0x8(%rbp)
  403b34:	48 8b 45 e8          	mov    -0x18(%rbp),%rax
  403b38:	8b 40 08             	mov    0x8(%rax),%eax
  403b3b:	23 45 e4             	and    -0x1c(%rbp),%eax
  403b3e:	89 c0                	mov    %eax,%eax
  403b40:	48 8d 14 c5 00 00 00 	lea    0x0(,%rax,8),%rdx
  403b47:	00 
  403b48:	48 8b 45 f8          	mov    -0x8(%rbp),%rax
  403b4c:	48 01 d0             	add    %rdx,%rax
  403b4f:	5d                   	pop    %rbp
  403b50:	c3                   	retq   

0000000000403b51 <xsk_ring_cons__rx_desc>:
  403b51:	55                   	push   %rbp
  403b52:	48 89 e5             	mov    %rsp,%rbp
  403b55:	48 89 7d e8          	mov    %rdi,-0x18(%rbp)
  403b59:	89 75 e4             	mov    %esi,-0x1c(%rbp)
  403b5c:	48 8b 45 e8          	mov    -0x18(%rbp),%rax
  403b60:	48 8b 40 20          	mov    0x20(%rax),%rax
  403b64:	48 89 45 f8          	mov    %rax,-0x8(%rbp)
  403b68:	48 8b 45 e8          	mov    -0x18(%rbp),%rax
  403b6c:	8b 40 08             	mov    0x8(%rax),%eax
  403b6f:	23 45 e4             	and    -0x1c(%rbp),%eax
  403b72:	89 c0                	mov    %eax,%eax
  403b74:	48 c1 e0 04          	shl    $0x4,%rax
  403b78:	48 89 c2             	mov    %rax,%rdx
  403b7b:	48 8b 45 f8          	mov    -0x8(%rbp),%rax
  403b7f:	48 01 d0             	add    %rdx,%rax
  403b82:	5d                   	pop    %rbp
  403b83:	c3                   	retq   

0000000000403b84 <xsk_prod_nb_free>:
  403b84:	55                   	push   %rbp
  403b85:	48 89 e5             	mov    %rsp,%rbp
  403b88:	48 89 7d e8          	mov    %rdi,-0x18(%rbp)
  403b8c:	89 75 e4             	mov    %esi,-0x1c(%rbp)
  403b8f:	48 8b 45 e8          	mov    -0x18(%rbp),%rax
  403b93:	8b 50 04             	mov    0x4(%rax),%edx
  403b96:	48 8b 45 e8          	mov    -0x18(%rbp),%rax
  403b9a:	8b 00                	mov    (%rax),%eax
  403b9c:	29 c2                	sub    %eax,%edx
  403b9e:	89 d0                	mov    %edx,%eax
  403ba0:	89 45 fc             	mov    %eax,-0x4(%rbp)
  403ba3:	8b 45 fc             	mov    -0x4(%rbp),%eax
  403ba6:	3b 45 e4             	cmp    -0x1c(%rbp),%eax
  403ba9:	72 05                	jb     403bb0 <xsk_prod_nb_free+0x2c>
  403bab:	8b 45 fc             	mov    -0x4(%rbp),%eax
  403bae:	eb 2b                	jmp    403bdb <xsk_prod_nb_free+0x57>
  403bb0:	48 8b 45 e8          	mov    -0x18(%rbp),%rax
  403bb4:	48 8b 40 18          	mov    0x18(%rax),%rax
  403bb8:	8b 10                	mov    (%rax),%edx
  403bba:	48 8b 45 e8          	mov    -0x18(%rbp),%rax
  403bbe:	8b 40 0c             	mov    0xc(%rax),%eax
  403bc1:	01 c2                	add    %eax,%edx
  403bc3:	48 8b 45 e8          	mov    -0x18(%rbp),%rax
  403bc7:	89 50 04             	mov    %edx,0x4(%rax)
  403bca:	48 8b 45 e8          	mov    -0x18(%rbp),%rax
  403bce:	8b 50 04             	mov    0x4(%rax),%edx
  403bd1:	48 8b 45 e8          	mov    -0x18(%rbp),%rax
  403bd5:	8b 00                	mov    (%rax),%eax
  403bd7:	29 c2                	sub    %eax,%edx
  403bd9:	89 d0                	mov    %edx,%eax
  403bdb:	5d                   	pop    %rbp
  403bdc:	c3                   	retq   

0000000000403bdd <xsk_cons_nb_avail>:
  403bdd:	55                   	push   %rbp
  403bde:	48 89 e5             	mov    %rsp,%rbp
  403be1:	48 89 7d e8          	mov    %rdi,-0x18(%rbp)
  403be5:	89 75 e4             	mov    %esi,-0x1c(%rbp)
  403be8:	48 8b 45 e8          	mov    -0x18(%rbp),%rax
  403bec:	8b 10                	mov    (%rax),%edx
  403bee:	48 8b 45 e8          	mov    -0x18(%rbp),%rax
  403bf2:	8b 40 04             	mov    0x4(%rax),%eax
  403bf5:	29 c2                	sub    %eax,%edx
  403bf7:	89 d0                	mov    %edx,%eax
  403bf9:	89 45 fc             	mov    %eax,-0x4(%rbp)
  403bfc:	83 7d fc 00          	cmpl   $0x0,-0x4(%rbp)
  403c00:	75 24                	jne    403c26 <xsk_cons_nb_avail+0x49>
  403c02:	48 8b 45 e8          	mov    -0x18(%rbp),%rax
  403c06:	48 8b 40 10          	mov    0x10(%rax),%rax
  403c0a:	8b 10                	mov    (%rax),%edx
  403c0c:	48 8b 45 e8          	mov    -0x18(%rbp),%rax
  403c10:	89 10                	mov    %edx,(%rax)
  403c12:	48 8b 45 e8          	mov    -0x18(%rbp),%rax
  403c16:	8b 10                	mov    (%rax),%edx
  403c18:	48 8b 45 e8          	mov    -0x18(%rbp),%rax
  403c1c:	8b 40 04             	mov    0x4(%rax),%eax
  403c1f:	29 c2                	sub    %eax,%edx
  403c21:	89 d0                	mov    %edx,%eax
  403c23:	89 45 fc             	mov    %eax,-0x4(%rbp)
  403c26:	8b 45 e4             	mov    -0x1c(%rbp),%eax
  403c29:	39 45 fc             	cmp    %eax,-0x4(%rbp)
  403c2c:	0f 46 45 fc          	cmovbe -0x4(%rbp),%eax
  403c30:	5d                   	pop    %rbp
  403c31:	c3                   	retq   

0000000000403c32 <xsk_ring_prod__reserve>:
  403c32:	55                   	push   %rbp
  403c33:	48 89 e5             	mov    %rsp,%rbp
  403c36:	48 83 ec 18          	sub    $0x18,%rsp
  403c3a:	48 89 7d f8          	mov    %rdi,-0x8(%rbp)
  403c3e:	48 89 75 f0          	mov    %rsi,-0x10(%rbp)
  403c42:	48 89 55 e8          	mov    %rdx,-0x18(%rbp)
  403c46:	48 8b 45 f0          	mov    -0x10(%rbp),%rax
  403c4a:	89 c2                	mov    %eax,%edx
  403c4c:	48 8b 45 f8          	mov    -0x8(%rbp),%rax
  403c50:	89 d6                	mov    %edx,%esi
  403c52:	48 89 c7             	mov    %rax,%rdi
  403c55:	e8 2a ff ff ff       	callq  403b84 <xsk_prod_nb_free>
  403c5a:	89 c0                	mov    %eax,%eax
  403c5c:	48 39 45 f0          	cmp    %rax,-0x10(%rbp)
  403c60:	76 07                	jbe    403c69 <xsk_ring_prod__reserve+0x37>
  403c62:	b8 00 00 00 00       	mov    $0x0,%eax
  403c67:	eb 22                	jmp    403c8b <xsk_ring_prod__reserve+0x59>
  403c69:	48 8b 45 f8          	mov    -0x8(%rbp),%rax
  403c6d:	8b 10                	mov    (%rax),%edx
  403c6f:	48 8b 45 e8          	mov    -0x18(%rbp),%rax
  403c73:	89 10                	mov    %edx,(%rax)
  403c75:	48 8b 45 f8          	mov    -0x8(%rbp),%rax
  403c79:	8b 00                	mov    (%rax),%eax
  403c7b:	48 8b 55 f0          	mov    -0x10(%rbp),%rdx
  403c7f:	01 c2                	add    %eax,%edx
  403c81:	48 8b 45 f8          	mov    -0x8(%rbp),%rax
  403c85:	89 10                	mov    %edx,(%rax)
  403c87:	48 8b 45 f0          	mov    -0x10(%rbp),%rax
  403c8b:	c9                   	leaveq 
  403c8c:	c3                   	retq   

0000000000403c8d <xsk_ring_prod__submit>:
  403c8d:	55                   	push   %rbp
  403c8e:	48 89 e5             	mov    %rsp,%rbp
  403c91:	48 89 7d f8          	mov    %rdi,-0x8(%rbp)
  403c95:	48 89 75 f0          	mov    %rsi,-0x10(%rbp)
  403c99:	48 8b 45 f8          	mov    -0x8(%rbp),%rax
  403c9d:	48 8b 40 10          	mov    0x10(%rax),%rax
  403ca1:	8b 10                	mov    (%rax),%edx
  403ca3:	48 8b 45 f0          	mov    -0x10(%rbp),%rax
  403ca7:	89 c1                	mov    %eax,%ecx
  403ca9:	48 8b 45 f8          	mov    -0x8(%rbp),%rax
  403cad:	48 8b 40 10          	mov    0x10(%rax),%rax
  403cb1:	01 ca                	add    %ecx,%edx
  403cb3:	89 10                	mov    %edx,(%rax)
  403cb5:	90                   	nop
  403cb6:	5d                   	pop    %rbp
  403cb7:	c3                   	retq   

0000000000403cb8 <xsk_ring_cons__peek>:
  403cb8:	55                   	push   %rbp
  403cb9:	48 89 e5             	mov    %rsp,%rbp
  403cbc:	48 83 ec 28          	sub    $0x28,%rsp
  403cc0:	48 89 7d e8          	mov    %rdi,-0x18(%rbp)
  403cc4:	48 89 75 e0          	mov    %rsi,-0x20(%rbp)
  403cc8:	48 89 55 d8          	mov    %rdx,-0x28(%rbp)
  403ccc:	48 8b 45 e0          	mov    -0x20(%rbp),%rax
  403cd0:	89 c2                	mov    %eax,%edx
  403cd2:	48 8b 45 e8          	mov    -0x18(%rbp),%rax
  403cd6:	89 d6                	mov    %edx,%esi
  403cd8:	48 89 c7             	mov    %rax,%rdi
  403cdb:	e8 fd fe ff ff       	callq  403bdd <xsk_cons_nb_avail>
  403ce0:	89 c0                	mov    %eax,%eax
  403ce2:	48 89 45 f8          	mov    %rax,-0x8(%rbp)
  403ce6:	48 83 7d f8 00       	cmpq   $0x0,-0x8(%rbp)
  403ceb:	74 21                	je     403d0e <xsk_ring_cons__peek+0x56>
  403ced:	48 8b 45 e8          	mov    -0x18(%rbp),%rax
  403cf1:	8b 50 04             	mov    0x4(%rax),%edx
  403cf4:	48 8b 45 d8          	mov    -0x28(%rbp),%rax
  403cf8:	89 10                	mov    %edx,(%rax)
  403cfa:	48 8b 45 e8          	mov    -0x18(%rbp),%rax
  403cfe:	8b 40 04             	mov    0x4(%rax),%eax
  403d01:	48 8b 55 f8          	mov    -0x8(%rbp),%rdx
  403d05:	01 c2                	add    %eax,%edx
  403d07:	48 8b 45 e8          	mov    -0x18(%rbp),%rax
  403d0b:	89 50 04             	mov    %edx,0x4(%rax)
  403d0e:	48 8b 45 f8          	mov    -0x8(%rbp),%rax
  403d12:	c9                   	leaveq 
  403d13:	c3                   	retq   

0000000000403d14 <xsk_ring_cons__release>:
  403d14:	55                   	push   %rbp
  403d15:	48 89 e5             	mov    %rsp,%rbp
  403d18:	48 89 7d f8          	mov    %rdi,-0x8(%rbp)
  403d1c:	48 89 75 f0          	mov    %rsi,-0x10(%rbp)
  403d20:	48 8b 45 f8          	mov    -0x8(%rbp),%rax
  403d24:	48 8b 40 18          	mov    0x18(%rax),%rax
  403d28:	8b 10                	mov    (%rax),%edx
  403d2a:	48 8b 45 f0          	mov    -0x10(%rbp),%rax
  403d2e:	89 c1                	mov    %eax,%ecx
  403d30:	48 8b 45 f8          	mov    -0x8(%rbp),%rax
  403d34:	48 8b 40 18          	mov    0x18(%rax),%rax
  403d38:	01 ca                	add    %ecx,%edx
  403d3a:	89 10                	mov    %edx,(%rax)
  403d3c:	90                   	nop
  403d3d:	5d                   	pop    %rbp
  403d3e:	c3                   	retq   

0000000000403d3f <xsk_umem__get_data>:
  403d3f:	55                   	push   %rbp
  403d40:	48 89 e5             	mov    %rsp,%rbp
  403d43:	48 89 7d f8          	mov    %rdi,-0x8(%rbp)
  403d47:	48 89 75 f0          	mov    %rsi,-0x10(%rbp)
  403d4b:	48 8b 55 f8          	mov    -0x8(%rbp),%rdx
  403d4f:	48 8b 45 f0          	mov    -0x10(%rbp),%rax
  403d53:	48 01 d0             	add    %rdx,%rax
  403d56:	5d                   	pop    %rbp
  403d57:	c3                   	retq   

0000000000403d58 <configure_xsk_umem>:
  403d58:	55                   	push   %rbp
  403d59:	48 89 e5             	mov    %rsp,%rbp
  403d5c:	48 83 ec 20          	sub    $0x20,%rsp
  403d60:	48 89 7d e8          	mov    %rdi,-0x18(%rbp)
  403d64:	48 89 75 e0          	mov    %rsi,-0x20(%rbp)
  403d68:	be 70 00 00 00       	mov    $0x70,%esi
  403d6d:	bf 01 00 00 00       	mov    $0x1,%edi
  403d72:	e8 99 e5 ff ff       	callq  402310 <calloc@plt>
  403d77:	48 89 45 f8          	mov    %rax,-0x8(%rbp)
  403d7b:	48 83 7d f8 00       	cmpq   $0x0,-0x8(%rbp)
  403d80:	75 07                	jne    403d89 <configure_xsk_umem+0x31>
  403d82:	b8 00 00 00 00       	mov    $0x0,%eax
  403d87:	eb 59                	jmp    403de2 <configure_xsk_umem+0x8a>
  403d89:	48 8b 45 f8          	mov    -0x8(%rbp),%rax
  403d8d:	48 8d 70 30          	lea    0x30(%rax),%rsi
  403d91:	48 8b 4d f8          	mov    -0x8(%rbp),%rcx
  403d95:	48 8b 45 f8          	mov    -0x8(%rbp),%rax
  403d99:	48 8d 78 60          	lea    0x60(%rax),%rdi
  403d9d:	48 8b 55 e0          	mov    -0x20(%rbp),%rdx
  403da1:	48 8b 45 e8          	mov    -0x18(%rbp),%rax
  403da5:	41 b9 00 00 00 00    	mov    $0x0,%r9d
  403dab:	49 89 f0             	mov    %rsi,%r8
  403dae:	48 89 c6             	mov    %rax,%rsi
  403db1:	e8 2a d7 00 00       	callq  4114e0 <xsk_umem__create>
  403db6:	89 45 f4             	mov    %eax,-0xc(%rbp)
  403db9:	83 7d f4 00          	cmpl   $0x0,-0xc(%rbp)
  403dbd:	74 13                	je     403dd2 <configure_xsk_umem+0x7a>
  403dbf:	e8 cc e2 ff ff       	callq  402090 <__errno_location@plt>
  403dc4:	8b 55 f4             	mov    -0xc(%rbp),%edx
  403dc7:	f7 da                	neg    %edx
  403dc9:	89 10                	mov    %edx,(%rax)
  403dcb:	b8 00 00 00 00       	mov    $0x0,%eax
  403dd0:	eb 10                	jmp    403de2 <configure_xsk_umem+0x8a>
  403dd2:	48 8b 45 f8          	mov    -0x8(%rbp),%rax
  403dd6:	48 8b 55 e8          	mov    -0x18(%rbp),%rdx
  403dda:	48 89 50 68          	mov    %rdx,0x68(%rax)
  403dde:	48 8b 45 f8          	mov    -0x8(%rbp),%rax
  403de2:	c9                   	leaveq 
  403de3:	c3                   	retq   

0000000000403de4 <xsk_alloc_umem_frame>:
  403de4:	55                   	push   %rbp
  403de5:	48 89 e5             	mov    %rsp,%rbp
  403de8:	48 89 7d e8          	mov    %rdi,-0x18(%rbp)
  403dec:	48 8b 45 e8          	mov    -0x18(%rbp),%rax
  403df0:	8b 80 70 80 00 00    	mov    0x8070(%rax),%eax
  403df6:	85 c0                	test   %eax,%eax
  403df8:	75 09                	jne    403e03 <xsk_alloc_umem_frame+0x1f>
  403dfa:	48 c7 c0 ff ff ff ff 	mov    $0xffffffffffffffff,%rax
  403e01:	eb 53                	jmp    403e56 <xsk_alloc_umem_frame+0x72>
  403e03:	48 8b 45 e8          	mov    -0x18(%rbp),%rax
  403e07:	8b 80 70 80 00 00    	mov    0x8070(%rax),%eax
  403e0d:	8d 50 ff             	lea    -0x1(%rax),%edx
  403e10:	48 8b 45 e8          	mov    -0x18(%rbp),%rax
  403e14:	89 90 70 80 00 00    	mov    %edx,0x8070(%rax)
  403e1a:	48 8b 45 e8          	mov    -0x18(%rbp),%rax
  403e1e:	8b 90 70 80 00 00    	mov    0x8070(%rax),%edx
  403e24:	48 8b 45 e8          	mov    -0x18(%rbp),%rax
  403e28:	89 d2                	mov    %edx,%edx
  403e2a:	48 83 c2 0e          	add    $0xe,%rdx
  403e2e:	48 8b 04 d0          	mov    (%rax,%rdx,8),%rax
  403e32:	48 89 45 f8          	mov    %rax,-0x8(%rbp)
  403e36:	48 8b 45 e8          	mov    -0x18(%rbp),%rax
  403e3a:	8b 90 70 80 00 00    	mov    0x8070(%rax),%edx
  403e40:	48 8b 45 e8          	mov    -0x18(%rbp),%rax
  403e44:	89 d2                	mov    %edx,%edx
  403e46:	48 83 c2 0e          	add    $0xe,%rdx
  403e4a:	48 c7 04 d0 ff ff ff 	movq   $0xffffffffffffffff,(%rax,%rdx,8)
  403e51:	ff 
  403e52:	48 8b 45 f8          	mov    -0x8(%rbp),%rax
  403e56:	5d                   	pop    %rbp
  403e57:	c3                   	retq   

0000000000403e58 <xsk_free_umem_frame>:
  403e58:	55                   	push   %rbp
  403e59:	48 89 e5             	mov    %rsp,%rbp
  403e5c:	48 83 ec 10          	sub    $0x10,%rsp
  403e60:	48 89 7d f8          	mov    %rdi,-0x8(%rbp)
  403e64:	48 89 75 f0          	mov    %rsi,-0x10(%rbp)
  403e68:	48 8b 45 f8          	mov    -0x8(%rbp),%rax
  403e6c:	8b 80 70 80 00 00    	mov    0x8070(%rax),%eax
  403e72:	3d ff 0f 00 00       	cmp    $0xfff,%eax
  403e77:	76 19                	jbe    403e92 <xsk_free_umem_frame+0x3a>
  403e79:	b9 e0 82 41 00       	mov    $0x4182e0,%ecx
  403e7e:	ba a1 00 00 00       	mov    $0xa1,%edx
  403e83:	be 48 80 41 00       	mov    $0x418048,%esi
  403e88:	bf 58 80 41 00       	mov    $0x418058,%edi
  403e8d:	e8 ce e3 ff ff       	callq  402260 <__assert_fail@plt>
  403e92:	48 8b 45 f8          	mov    -0x8(%rbp),%rax
  403e96:	8b 80 70 80 00 00    	mov    0x8070(%rax),%eax
  403e9c:	8d 48 01             	lea    0x1(%rax),%ecx
  403e9f:	48 8b 55 f8          	mov    -0x8(%rbp),%rdx
  403ea3:	89 8a 70 80 00 00    	mov    %ecx,0x8070(%rdx)
  403ea9:	48 8b 55 f8          	mov    -0x8(%rbp),%rdx
  403ead:	89 c0                	mov    %eax,%eax
  403eaf:	48 8d 48 0e          	lea    0xe(%rax),%rcx
  403eb3:	48 8b 45 f0          	mov    -0x10(%rbp),%rax
  403eb7:	48 89 04 ca          	mov    %rax,(%rdx,%rcx,8)
  403ebb:	90                   	nop
  403ebc:	c9                   	leaveq 
  403ebd:	c3                   	retq   

0000000000403ebe <xsk_umem_free_frames>:
  403ebe:	55                   	push   %rbp
  403ebf:	48 89 e5             	mov    %rsp,%rbp
  403ec2:	48 89 7d f8          	mov    %rdi,-0x8(%rbp)
  403ec6:	48 8b 45 f8          	mov    -0x8(%rbp),%rax
  403eca:	8b 80 70 80 00 00    	mov    0x8070(%rax),%eax
  403ed0:	89 c0                	mov    %eax,%eax
  403ed2:	5d                   	pop    %rbp
  403ed3:	c3                   	retq   

0000000000403ed4 <xsk_configure_socket>:
  403ed4:	55                   	push   %rbp
  403ed5:	48 89 e5             	mov    %rsp,%rbp
  403ed8:	53                   	push   %rbx
  403ed9:	48 83 ec 58          	sub    $0x58,%rsp
  403edd:	48 89 7d a8          	mov    %rdi,-0x58(%rbp)
  403ee1:	48 89 75 a0          	mov    %rsi,-0x60(%rbp)
  403ee5:	c7 45 b8 00 00 00 00 	movl   $0x0,-0x48(%rbp)
  403eec:	be e8 80 00 00       	mov    $0x80e8,%esi
  403ef1:	bf 01 00 00 00       	mov    $0x1,%edi
  403ef6:	e8 15 e4 ff ff       	callq  402310 <calloc@plt>
  403efb:	48 89 45 e0          	mov    %rax,-0x20(%rbp)
  403eff:	48 83 7d e0 00       	cmpq   $0x0,-0x20(%rbp)
  403f04:	75 0a                	jne    403f10 <xsk_configure_socket+0x3c>
  403f06:	b8 00 00 00 00       	mov    $0x0,%eax
  403f0b:	e9 a0 01 00 00       	jmpq   4040b0 <xsk_configure_socket+0x1dc>
  403f10:	48 8b 45 e0          	mov    -0x20(%rbp),%rax
  403f14:	48 8b 55 a0          	mov    -0x60(%rbp),%rdx
  403f18:	48 89 50 60          	mov    %rdx,0x60(%rax)
  403f1c:	c7 45 c0 00 08 00 00 	movl   $0x800,-0x40(%rbp)
  403f23:	c7 45 c4 00 08 00 00 	movl   $0x800,-0x3c(%rbp)
  403f2a:	c7 45 c8 00 00 00 00 	movl   $0x0,-0x38(%rbp)
  403f31:	48 8b 45 a8          	mov    -0x58(%rbp),%rax
  403f35:	8b 00                	mov    (%rax),%eax
  403f37:	89 45 cc             	mov    %eax,-0x34(%rbp)
  403f3a:	48 8b 45 a8          	mov    -0x58(%rbp),%rax
  403f3e:	0f b7 80 86 04 00 00 	movzwl 0x486(%rax),%eax
  403f45:	66 89 45 d0          	mov    %ax,-0x30(%rbp)
  403f49:	48 8b 45 e0          	mov    -0x20(%rbp),%rax
  403f4d:	4c 8d 40 30          	lea    0x30(%rax),%r8
  403f51:	48 8b 75 e0          	mov    -0x20(%rbp),%rsi
  403f55:	48 8b 45 a0          	mov    -0x60(%rbp),%rax
  403f59:	48 8b 50 60          	mov    0x60(%rax),%rdx
  403f5d:	48 8b 45 a8          	mov    -0x58(%rbp),%rax
  403f61:	8b 80 88 04 00 00    	mov    0x488(%rax),%eax
  403f67:	41 89 c2             	mov    %eax,%r10d
  403f6a:	48 8b 45 a8          	mov    -0x58(%rbp),%rax
  403f6e:	48 8b 40 08          	mov    0x8(%rax),%rax
  403f72:	48 8b 4d e0          	mov    -0x20(%rbp),%rcx
  403f76:	48 8d 79 68          	lea    0x68(%rcx),%rdi
  403f7a:	48 83 ec 08          	sub    $0x8,%rsp
  403f7e:	48 8d 4d c0          	lea    -0x40(%rbp),%rcx
  403f82:	51                   	push   %rcx
  403f83:	4d 89 c1             	mov    %r8,%r9
  403f86:	49 89 f0             	mov    %rsi,%r8
  403f89:	48 89 d1             	mov    %rdx,%rcx
  403f8c:	44 89 d2             	mov    %r10d,%edx
  403f8f:	48 89 c6             	mov    %rax,%rsi
  403f92:	e8 b9 d8 00 00       	callq  411850 <xsk_socket__create>
  403f97:	48 83 c4 10          	add    $0x10,%rsp
  403f9b:	89 45 e8             	mov    %eax,-0x18(%rbp)
  403f9e:	83 7d e8 00          	cmpl   $0x0,-0x18(%rbp)
  403fa2:	0f 85 f0 00 00 00    	jne    404098 <xsk_configure_socket+0x1c4>
  403fa8:	48 8b 45 a8          	mov    -0x58(%rbp),%rax
  403fac:	8b 10                	mov    (%rax),%edx
  403fae:	48 8b 45 a8          	mov    -0x58(%rbp),%rax
  403fb2:	8b 40 04             	mov    0x4(%rax),%eax
  403fb5:	48 8d 4d b8          	lea    -0x48(%rbp),%rcx
  403fb9:	48 89 ce             	mov    %rcx,%rsi
  403fbc:	89 c7                	mov    %eax,%edi
  403fbe:	e8 fd c8 00 00       	callq  4108c0 <bpf_get_link_xdp_id>
  403fc3:	89 45 e8             	mov    %eax,-0x18(%rbp)
  403fc6:	83 7d e8 00          	cmpl   $0x0,-0x18(%rbp)
  403fca:	0f 85 cb 00 00 00    	jne    40409b <xsk_configure_socket+0x1c7>
  403fd0:	c7 45 ec 00 00 00 00 	movl   $0x0,-0x14(%rbp)
  403fd7:	eb 1f                	jmp    403ff8 <xsk_configure_socket+0x124>
  403fd9:	8b 45 ec             	mov    -0x14(%rbp),%eax
  403fdc:	c1 e0 0c             	shl    $0xc,%eax
  403fdf:	48 63 d0             	movslq %eax,%rdx
  403fe2:	48 8b 45 e0          	mov    -0x20(%rbp),%rax
  403fe6:	8b 4d ec             	mov    -0x14(%rbp),%ecx
  403fe9:	48 63 c9             	movslq %ecx,%rcx
  403fec:	48 83 c1 0e          	add    $0xe,%rcx
  403ff0:	48 89 14 c8          	mov    %rdx,(%rax,%rcx,8)
  403ff4:	83 45 ec 01          	addl   $0x1,-0x14(%rbp)
  403ff8:	81 7d ec ff 0f 00 00 	cmpl   $0xfff,-0x14(%rbp)
  403fff:	7e d8                	jle    403fd9 <xsk_configure_socket+0x105>
  404001:	48 8b 45 e0          	mov    -0x20(%rbp),%rax
  404005:	c7 80 70 80 00 00 00 	movl   $0x1000,0x8070(%rax)
  40400c:	10 00 00 
  40400f:	48 8b 45 e0          	mov    -0x20(%rbp),%rax
  404013:	48 8b 40 60          	mov    0x60(%rax),%rax
  404017:	48 89 c1             	mov    %rax,%rcx
  40401a:	48 8d 45 bc          	lea    -0x44(%rbp),%rax
  40401e:	48 89 c2             	mov    %rax,%rdx
  404021:	be 00 08 00 00       	mov    $0x800,%esi
  404026:	48 89 cf             	mov    %rcx,%rdi
  404029:	e8 04 fc ff ff       	callq  403c32 <xsk_ring_prod__reserve>
  40402e:	89 45 e8             	mov    %eax,-0x18(%rbp)
  404031:	81 7d e8 00 08 00 00 	cmpl   $0x800,-0x18(%rbp)
  404038:	75 64                	jne    40409e <xsk_configure_socket+0x1ca>
  40403a:	c7 45 ec 00 00 00 00 	movl   $0x0,-0x14(%rbp)
  404041:	eb 31                	jmp    404074 <xsk_configure_socket+0x1a0>
  404043:	8b 45 bc             	mov    -0x44(%rbp),%eax
  404046:	8d 50 01             	lea    0x1(%rax),%edx
  404049:	89 55 bc             	mov    %edx,-0x44(%rbp)
  40404c:	48 8b 55 e0          	mov    -0x20(%rbp),%rdx
  404050:	48 8b 52 60          	mov    0x60(%rdx),%rdx
  404054:	89 c6                	mov    %eax,%esi
  404056:	48 89 d7             	mov    %rdx,%rdi
  404059:	e8 8b fa ff ff       	callq  403ae9 <xsk_ring_prod__fill_addr>
  40405e:	48 89 c3             	mov    %rax,%rbx
  404061:	48 8b 45 e0          	mov    -0x20(%rbp),%rax
  404065:	48 89 c7             	mov    %rax,%rdi
  404068:	e8 77 fd ff ff       	callq  403de4 <xsk_alloc_umem_frame>
  40406d:	48 89 03             	mov    %rax,(%rbx)
  404070:	83 45 ec 01          	addl   $0x1,-0x14(%rbp)
  404074:	81 7d ec ff 07 00 00 	cmpl   $0x7ff,-0x14(%rbp)
  40407b:	7e c6                	jle    404043 <xsk_configure_socket+0x16f>
  40407d:	48 8b 45 e0          	mov    -0x20(%rbp),%rax
  404081:	48 8b 40 60          	mov    0x60(%rax),%rax
  404085:	be 00 08 00 00       	mov    $0x800,%esi
  40408a:	48 89 c7             	mov    %rax,%rdi
  40408d:	e8 fb fb ff ff       	callq  403c8d <xsk_ring_prod__submit>
  404092:	48 8b 45 e0          	mov    -0x20(%rbp),%rax
  404096:	eb 18                	jmp    4040b0 <xsk_configure_socket+0x1dc>
  404098:	90                   	nop
  404099:	eb 04                	jmp    40409f <xsk_configure_socket+0x1cb>
  40409b:	90                   	nop
  40409c:	eb 01                	jmp    40409f <xsk_configure_socket+0x1cb>
  40409e:	90                   	nop
  40409f:	e8 ec df ff ff       	callq  402090 <__errno_location@plt>
  4040a4:	8b 55 e8             	mov    -0x18(%rbp),%edx
  4040a7:	f7 da                	neg    %edx
  4040a9:	89 10                	mov    %edx,(%rax)
  4040ab:	b8 00 00 00 00       	mov    $0x0,%eax
  4040b0:	48 8b 5d f8          	mov    -0x8(%rbp),%rbx
  4040b4:	c9                   	leaveq 
  4040b5:	c3                   	retq   

00000000004040b6 <complete_tx>:
  4040b6:	55                   	push   %rbp
  4040b7:	48 89 e5             	mov    %rsp,%rbp
  4040ba:	48 83 ec 20          	sub    $0x20,%rsp
  4040be:	48 89 7d e8          	mov    %rdi,-0x18(%rbp)
  4040c2:	48 8b 45 e8          	mov    -0x18(%rbp),%rax
  4040c6:	8b 80 74 80 00 00    	mov    0x8074(%rax),%eax
  4040cc:	85 c0                	test   %eax,%eax
  4040ce:	0f 84 bd 00 00 00    	je     404191 <complete_tx+0xdb>
  4040d4:	48 8b 45 e8          	mov    -0x18(%rbp),%rax
  4040d8:	48 8b 40 68          	mov    0x68(%rax),%rax
  4040dc:	48 89 c7             	mov    %rax,%rdi
  4040df:	e8 ec d3 00 00       	callq  4114d0 <xsk_socket__fd>
  4040e4:	41 b9 00 00 00 00    	mov    $0x0,%r9d
  4040ea:	41 b8 00 00 00 00    	mov    $0x0,%r8d
  4040f0:	b9 40 00 00 00       	mov    $0x40,%ecx
  4040f5:	ba 00 00 00 00       	mov    $0x0,%edx
  4040fa:	be 00 00 00 00       	mov    $0x0,%esi
  4040ff:	89 c7                	mov    %eax,%edi
  404101:	e8 9a e1 ff ff       	callq  4022a0 <sendto@plt>
  404106:	48 8b 45 e8          	mov    -0x18(%rbp),%rax
  40410a:	48 8b 40 60          	mov    0x60(%rax),%rax
  40410e:	48 8d 48 30          	lea    0x30(%rax),%rcx
  404112:	48 8d 45 f4          	lea    -0xc(%rbp),%rax
  404116:	48 89 c2             	mov    %rax,%rdx
  404119:	be 00 08 00 00       	mov    $0x800,%esi
  40411e:	48 89 cf             	mov    %rcx,%rdi
  404121:	e8 92 fb ff ff       	callq  403cb8 <xsk_ring_cons__peek>
  404126:	89 45 f8             	mov    %eax,-0x8(%rbp)
  404129:	83 7d f8 00          	cmpl   $0x0,-0x8(%rbp)
  40412d:	74 63                	je     404192 <complete_tx+0xdc>
  40412f:	c7 45 fc 00 00 00 00 	movl   $0x0,-0x4(%rbp)
  404136:	eb 35                	jmp    40416d <complete_tx+0xb7>
  404138:	8b 45 f4             	mov    -0xc(%rbp),%eax
  40413b:	8d 50 01             	lea    0x1(%rax),%edx
  40413e:	89 55 f4             	mov    %edx,-0xc(%rbp)
  404141:	48 8b 55 e8          	mov    -0x18(%rbp),%rdx
  404145:	48 8b 52 60          	mov    0x60(%rdx),%rdx
  404149:	48 83 c2 30          	add    $0x30,%rdx
  40414d:	89 c6                	mov    %eax,%esi
  40414f:	48 89 d7             	mov    %rdx,%rdi
  404152:	e8 c6 f9 ff ff       	callq  403b1d <xsk_ring_cons__comp_addr>
  404157:	48 8b 10             	mov    (%rax),%rdx
  40415a:	48 8b 45 e8          	mov    -0x18(%rbp),%rax
  40415e:	48 89 d6             	mov    %rdx,%rsi
  404161:	48 89 c7             	mov    %rax,%rdi
  404164:	e8 ef fc ff ff       	callq  403e58 <xsk_free_umem_frame>
  404169:	83 45 fc 01          	addl   $0x1,-0x4(%rbp)
  40416d:	8b 45 fc             	mov    -0x4(%rbp),%eax
  404170:	39 45 f8             	cmp    %eax,-0x8(%rbp)
  404173:	77 c3                	ja     404138 <complete_tx+0x82>
  404175:	8b 45 f8             	mov    -0x8(%rbp),%eax
  404178:	48 8b 55 e8          	mov    -0x18(%rbp),%rdx
  40417c:	48 8b 52 60          	mov    0x60(%rdx),%rdx
  404180:	48 83 c2 30          	add    $0x30,%rdx
  404184:	48 89 c6             	mov    %rax,%rsi
  404187:	48 89 d7             	mov    %rdx,%rdi
  40418a:	e8 85 fb ff ff       	callq  403d14 <xsk_ring_cons__release>
  40418f:	eb 01                	jmp    404192 <complete_tx+0xdc>
  404191:	90                   	nop
  404192:	c9                   	leaveq 
  404193:	c3                   	retq   

0000000000404194 <process_packet>:
  404194:	55                   	push   %rbp
  404195:	48 89 e5             	mov    %rsp,%rbp
  404198:	48 83 ec 48          	sub    $0x48,%rsp
  40419c:	48 89 7d c8          	mov    %rdi,-0x38(%rbp)
  4041a0:	48 89 75 c0          	mov    %rsi,-0x40(%rbp)
  4041a4:	89 55 bc             	mov    %edx,-0x44(%rbp)
  4041a7:	48 8b 45 c8          	mov    -0x38(%rbp),%rax
  4041ab:	48 8b 40 60          	mov    0x60(%rax),%rax
  4041af:	48 8b 40 68          	mov    0x68(%rax),%rax
  4041b3:	48 8b 55 c0          	mov    -0x40(%rbp),%rdx
  4041b7:	48 89 d6             	mov    %rdx,%rsi
  4041ba:	48 89 c7             	mov    %rax,%rdi
  4041bd:	e8 7d fb ff ff       	callq  403d3f <xsk_umem__get_data>
  4041c2:	48 89 45 f8          	mov    %rax,-0x8(%rbp)
  4041c6:	b8 00 00 00 00       	mov    $0x0,%eax
  4041cb:	c9                   	leaveq 
  4041cc:	c3                   	retq   

00000000004041cd <handle_receive_packets>:
  4041cd:	55                   	push   %rbp
  4041ce:	48 89 e5             	mov    %rsp,%rbp
  4041d1:	53                   	push   %rbx
  4041d2:	48 83 ec 48          	sub    $0x48,%rsp
  4041d6:	48 89 7d b8          	mov    %rdi,-0x48(%rbp)
  4041da:	c7 45 d0 00 00 00 00 	movl   $0x0,-0x30(%rbp)
  4041e1:	c7 45 cc 00 00 00 00 	movl   $0x0,-0x34(%rbp)
  4041e8:	48 8b 45 b8          	mov    -0x48(%rbp),%rax
  4041ec:	48 8d 55 d0          	lea    -0x30(%rbp),%rdx
  4041f0:	be 40 00 00 00       	mov    $0x40,%esi
  4041f5:	48 89 c7             	mov    %rax,%rdi
  4041f8:	e8 bb fa ff ff       	callq  403cb8 <xsk_ring_cons__peek>
  4041fd:	89 45 e4             	mov    %eax,-0x1c(%rbp)
  404200:	83 7d e4 00          	cmpl   $0x0,-0x1c(%rbp)
  404204:	0f 84 a8 01 00 00    	je     4043b2 <handle_receive_packets+0x1e5>
  40420a:	48 8b 45 b8          	mov    -0x48(%rbp),%rax
  40420e:	48 89 c7             	mov    %rax,%rdi
  404211:	e8 a8 fc ff ff       	callq  403ebe <xsk_umem_free_frames>
  404216:	89 c2                	mov    %eax,%edx
  404218:	48 8b 45 b8          	mov    -0x48(%rbp),%rax
  40421c:	48 8b 40 60          	mov    0x60(%rax),%rax
  404220:	89 d6                	mov    %edx,%esi
  404222:	48 89 c7             	mov    %rax,%rdi
  404225:	e8 5a f9 ff ff       	callq  403b84 <xsk_prod_nb_free>
  40422a:	89 45 e0             	mov    %eax,-0x20(%rbp)
  40422d:	83 7d e0 00          	cmpl   $0x0,-0x20(%rbp)
  404231:	0f 84 a2 00 00 00    	je     4042d9 <handle_receive_packets+0x10c>
  404237:	8b 45 e0             	mov    -0x20(%rbp),%eax
  40423a:	48 8b 55 b8          	mov    -0x48(%rbp),%rdx
  40423e:	48 8b 52 60          	mov    0x60(%rdx),%rdx
  404242:	48 89 d1             	mov    %rdx,%rcx
  404245:	48 8d 55 cc          	lea    -0x34(%rbp),%rdx
  404249:	48 89 c6             	mov    %rax,%rsi
  40424c:	48 89 cf             	mov    %rcx,%rdi
  40424f:	e8 de f9 ff ff       	callq  403c32 <xsk_ring_prod__reserve>
  404254:	89 45 e8             	mov    %eax,-0x18(%rbp)
  404257:	eb 20                	jmp    404279 <handle_receive_packets+0xac>
  404259:	8b 45 e4             	mov    -0x1c(%rbp),%eax
  40425c:	48 8b 55 b8          	mov    -0x48(%rbp),%rdx
  404260:	48 8b 52 60          	mov    0x60(%rdx),%rdx
  404264:	48 89 d1             	mov    %rdx,%rcx
  404267:	48 8d 55 cc          	lea    -0x34(%rbp),%rdx
  40426b:	48 89 c6             	mov    %rax,%rsi
  40426e:	48 89 cf             	mov    %rcx,%rdi
  404271:	e8 bc f9 ff ff       	callq  403c32 <xsk_ring_prod__reserve>
  404276:	89 45 e8             	mov    %eax,-0x18(%rbp)
  404279:	8b 45 e8             	mov    -0x18(%rbp),%eax
  40427c:	39 45 e0             	cmp    %eax,-0x20(%rbp)
  40427f:	75 d8                	jne    404259 <handle_receive_packets+0x8c>
  404281:	c7 45 ec 00 00 00 00 	movl   $0x0,-0x14(%rbp)
  404288:	eb 31                	jmp    4042bb <handle_receive_packets+0xee>
  40428a:	8b 45 cc             	mov    -0x34(%rbp),%eax
  40428d:	8d 50 01             	lea    0x1(%rax),%edx
  404290:	89 55 cc             	mov    %edx,-0x34(%rbp)
  404293:	48 8b 55 b8          	mov    -0x48(%rbp),%rdx
  404297:	48 8b 52 60          	mov    0x60(%rdx),%rdx
  40429b:	89 c6                	mov    %eax,%esi
  40429d:	48 89 d7             	mov    %rdx,%rdi
  4042a0:	e8 44 f8 ff ff       	callq  403ae9 <xsk_ring_prod__fill_addr>
  4042a5:	48 89 c3             	mov    %rax,%rbx
  4042a8:	48 8b 45 b8          	mov    -0x48(%rbp),%rax
  4042ac:	48 89 c7             	mov    %rax,%rdi
  4042af:	e8 30 fb ff ff       	callq  403de4 <xsk_alloc_umem_frame>
  4042b4:	48 89 03             	mov    %rax,(%rbx)
  4042b7:	83 45 ec 01          	addl   $0x1,-0x14(%rbp)
  4042bb:	8b 45 ec             	mov    -0x14(%rbp),%eax
  4042be:	3b 45 e0             	cmp    -0x20(%rbp),%eax
  4042c1:	72 c7                	jb     40428a <handle_receive_packets+0xbd>
  4042c3:	8b 45 e0             	mov    -0x20(%rbp),%eax
  4042c6:	48 8b 55 b8          	mov    -0x48(%rbp),%rdx
  4042ca:	48 8b 52 60          	mov    0x60(%rdx),%rdx
  4042ce:	48 89 c6             	mov    %rax,%rsi
  4042d1:	48 89 d7             	mov    %rdx,%rdi
  4042d4:	e8 b4 f9 ff ff       	callq  403c8d <xsk_ring_prod__submit>
  4042d9:	c7 45 ec 00 00 00 00 	movl   $0x0,-0x14(%rbp)
  4042e0:	e9 85 00 00 00       	jmpq   40436a <handle_receive_packets+0x19d>
  4042e5:	8b 55 d0             	mov    -0x30(%rbp),%edx
  4042e8:	48 8b 45 b8          	mov    -0x48(%rbp),%rax
  4042ec:	89 d6                	mov    %edx,%esi
  4042ee:	48 89 c7             	mov    %rax,%rdi
  4042f1:	e8 5b f8 ff ff       	callq  403b51 <xsk_ring_cons__rx_desc>
  4042f6:	48 8b 00             	mov    (%rax),%rax
  4042f9:	48 89 45 d8          	mov    %rax,-0x28(%rbp)
  4042fd:	8b 45 d0             	mov    -0x30(%rbp),%eax
  404300:	8d 50 01             	lea    0x1(%rax),%edx
  404303:	89 55 d0             	mov    %edx,-0x30(%rbp)
  404306:	48 8b 55 b8          	mov    -0x48(%rbp),%rdx
  40430a:	89 c6                	mov    %eax,%esi
  40430c:	48 89 d7             	mov    %rdx,%rdi
  40430f:	e8 3d f8 ff ff       	callq  403b51 <xsk_ring_cons__rx_desc>
  404314:	8b 40 08             	mov    0x8(%rax),%eax
  404317:	89 45 d4             	mov    %eax,-0x2c(%rbp)
  40431a:	8b 55 d4             	mov    -0x2c(%rbp),%edx
  40431d:	48 8b 4d d8          	mov    -0x28(%rbp),%rcx
  404321:	48 8b 45 b8          	mov    -0x48(%rbp),%rax
  404325:	48 89 ce             	mov    %rcx,%rsi
  404328:	48 89 c7             	mov    %rax,%rdi
  40432b:	e8 64 fe ff ff       	callq  404194 <process_packet>
  404330:	83 f0 01             	xor    $0x1,%eax
  404333:	84 c0                	test   %al,%al
  404335:	74 13                	je     40434a <handle_receive_packets+0x17d>
  404337:	48 8b 55 d8          	mov    -0x28(%rbp),%rdx
  40433b:	48 8b 45 b8          	mov    -0x48(%rbp),%rax
  40433f:	48 89 d6             	mov    %rdx,%rsi
  404342:	48 89 c7             	mov    %rax,%rdi
  404345:	e8 0e fb ff ff       	callq  403e58 <xsk_free_umem_frame>
  40434a:	48 8b 45 b8          	mov    -0x48(%rbp),%rax
  40434e:	48 8b 90 88 80 00 00 	mov    0x8088(%rax),%rdx
  404355:	8b 45 d4             	mov    -0x2c(%rbp),%eax
  404358:	48 01 c2             	add    %rax,%rdx
  40435b:	48 8b 45 b8          	mov    -0x48(%rbp),%rax
  40435f:	48 89 90 88 80 00 00 	mov    %rdx,0x8088(%rax)
  404366:	83 45 ec 01          	addl   $0x1,-0x14(%rbp)
  40436a:	8b 45 ec             	mov    -0x14(%rbp),%eax
  40436d:	3b 45 e4             	cmp    -0x1c(%rbp),%eax
  404370:	0f 82 6f ff ff ff    	jb     4042e5 <handle_receive_packets+0x118>
  404376:	8b 55 e4             	mov    -0x1c(%rbp),%edx
  404379:	48 8b 45 b8          	mov    -0x48(%rbp),%rax
  40437d:	48 89 d6             	mov    %rdx,%rsi
  404380:	48 89 c7             	mov    %rax,%rdi
  404383:	e8 8c f9 ff ff       	callq  403d14 <xsk_ring_cons__release>
  404388:	48 8b 45 b8          	mov    -0x48(%rbp),%rax
  40438c:	48 8b 90 80 80 00 00 	mov    0x8080(%rax),%rdx
  404393:	8b 45 e4             	mov    -0x1c(%rbp),%eax
  404396:	48 01 c2             	add    %rax,%rdx
  404399:	48 8b 45 b8          	mov    -0x48(%rbp),%rax
  40439d:	48 89 90 80 80 00 00 	mov    %rdx,0x8080(%rax)
  4043a4:	48 8b 45 b8          	mov    -0x48(%rbp),%rax
  4043a8:	48 89 c7             	mov    %rax,%rdi
  4043ab:	e8 06 fd ff ff       	callq  4040b6 <complete_tx>
  4043b0:	eb 01                	jmp    4043b3 <handle_receive_packets+0x1e6>
  4043b2:	90                   	nop
  4043b3:	48 83 c4 48          	add    $0x48,%rsp
  4043b7:	5b                   	pop    %rbx
  4043b8:	5d                   	pop    %rbp
  4043b9:	c3                   	retq   

00000000004043ba <rx_and_process>:
  4043ba:	55                   	push   %rbp
  4043bb:	48 89 e5             	mov    %rsp,%rbp
  4043be:	48 83 ec 30          	sub    $0x30,%rsp
  4043c2:	48 89 7d d8          	mov    %rdi,-0x28(%rbp)
  4043c6:	48 89 75 d0          	mov    %rsi,-0x30(%rbp)
  4043ca:	c7 45 fc 01 00 00 00 	movl   $0x1,-0x4(%rbp)
  4043d1:	48 8d 45 e0          	lea    -0x20(%rbp),%rax
  4043d5:	ba 10 00 00 00       	mov    $0x10,%edx
  4043da:	be 00 00 00 00       	mov    $0x0,%esi
  4043df:	48 89 c7             	mov    %rax,%rdi
  4043e2:	e8 99 de ff ff       	callq  402280 <memset@plt>
  4043e7:	48 8b 45 d0          	mov    -0x30(%rbp),%rax
  4043eb:	48 8b 40 68          	mov    0x68(%rax),%rax
  4043ef:	48 89 c7             	mov    %rax,%rdi
  4043f2:	e8 d9 d0 00 00       	callq  4114d0 <xsk_socket__fd>
  4043f7:	89 45 e0             	mov    %eax,-0x20(%rbp)
  4043fa:	66 c7 45 e4 01 00    	movw   $0x1,-0x1c(%rbp)
  404400:	eb 46                	jmp    404448 <rx_and_process+0x8e>
  404402:	48 8b 45 d8          	mov    -0x28(%rbp),%rax
  404406:	0f b6 80 8c 04 00 00 	movzbl 0x48c(%rax),%eax
  40440d:	84 c0                	test   %al,%al
  40440f:	74 2b                	je     40443c <rx_and_process+0x82>
  404411:	8b 45 fc             	mov    -0x4(%rbp),%eax
  404414:	48 63 c8             	movslq %eax,%rcx
  404417:	48 8d 45 e0          	lea    -0x20(%rbp),%rax
  40441b:	ba ff ff ff ff       	mov    $0xffffffff,%edx
  404420:	48 89 ce             	mov    %rcx,%rsi
  404423:	48 89 c7             	mov    %rax,%rdi
  404426:	e8 65 e0 ff ff       	callq  402490 <poll@plt>
  40442b:	89 45 f8             	mov    %eax,-0x8(%rbp)
  40442e:	83 7d f8 00          	cmpl   $0x0,-0x8(%rbp)
  404432:	7e 14                	jle    404448 <rx_and_process+0x8e>
  404434:	83 7d f8 01          	cmpl   $0x1,-0x8(%rbp)
  404438:	7e 02                	jle    40443c <rx_and_process+0x82>
  40443a:	eb 0c                	jmp    404448 <rx_and_process+0x8e>
  40443c:	48 8b 45 d0          	mov    -0x30(%rbp),%rax
  404440:	48 89 c7             	mov    %rax,%rdi
  404443:	e8 85 fd ff ff       	callq  4041cd <handle_receive_packets>
  404448:	0f b6 05 f1 ef 01 00 	movzbl 0x1eff1(%rip),%eax        # 423440 <global_exit>
  40444f:	83 f0 01             	xor    $0x1,%eax
  404452:	84 c0                	test   %al,%al
  404454:	75 ac                	jne    404402 <rx_and_process+0x48>
  404456:	90                   	nop
  404457:	90                   	nop
  404458:	c9                   	leaveq 
  404459:	c3                   	retq   

000000000040445a <gettime>:
  40445a:	55                   	push   %rbp
  40445b:	48 89 e5             	mov    %rsp,%rbp
  40445e:	48 83 ec 20          	sub    $0x20,%rsp
  404462:	48 8d 45 e0          	lea    -0x20(%rbp),%rax
  404466:	48 89 c6             	mov    %rax,%rsi
  404469:	bf 01 00 00 00       	mov    $0x1,%edi
  40446e:	e8 fd dc ff ff       	callq  402170 <clock_gettime@plt>
  404473:	89 45 fc             	mov    %eax,-0x4(%rbp)
  404476:	83 7d fc 00          	cmpl   $0x0,-0x4(%rbp)
  40447a:	79 26                	jns    4044a2 <gettime+0x48>
  40447c:	48 8b 05 9d ef 01 00 	mov    0x1ef9d(%rip),%rax        # 423420 <stderr@@GLIBC_2.2.5>
  404483:	8b 55 fc             	mov    -0x4(%rbp),%edx
  404486:	be 80 80 41 00       	mov    $0x418080,%esi
  40448b:	48 89 c7             	mov    %rax,%rdi
  40448e:	b8 00 00 00 00       	mov    $0x0,%eax
  404493:	e8 a8 de ff ff       	callq  402340 <fprintf@plt>
  404498:	bf 01 00 00 00       	mov    $0x1,%edi
  40449d:	e8 9e e0 ff ff       	callq  402540 <exit@plt>
  4044a2:	48 8b 45 e0          	mov    -0x20(%rbp),%rax
  4044a6:	48 69 c0 00 ca 9a 3b 	imul   $0x3b9aca00,%rax,%rax
  4044ad:	48 8b 55 e8          	mov    -0x18(%rbp),%rdx
  4044b1:	48 01 d0             	add    %rdx,%rax
  4044b4:	c9                   	leaveq 
  4044b5:	c3                   	retq   

00000000004044b6 <calc_period>:
  4044b6:	55                   	push   %rbp
  4044b7:	48 89 e5             	mov    %rsp,%rbp
  4044ba:	48 89 7d e8          	mov    %rdi,-0x18(%rbp)
  4044be:	48 89 75 e0          	mov    %rsi,-0x20(%rbp)
  4044c2:	66 0f ef c0          	pxor   %xmm0,%xmm0
  4044c6:	f2 0f 11 45 f8       	movsd  %xmm0,-0x8(%rbp)
  4044cb:	48 c7 45 f0 00 00 00 	movq   $0x0,-0x10(%rbp)
  4044d2:	00 
  4044d3:	48 8b 45 e8          	mov    -0x18(%rbp),%rax
  4044d7:	48 8b 10             	mov    (%rax),%rdx
  4044da:	48 8b 45 e0          	mov    -0x20(%rbp),%rax
  4044de:	48 8b 00             	mov    (%rax),%rax
  4044e1:	48 29 c2             	sub    %rax,%rdx
  4044e4:	48 89 d0             	mov    %rdx,%rax
  4044e7:	48 89 45 f0          	mov    %rax,-0x10(%rbp)
  4044eb:	48 83 7d f0 00       	cmpq   $0x0,-0x10(%rbp)
  4044f0:	74 36                	je     404528 <calc_period+0x72>
  4044f2:	48 8b 45 f0          	mov    -0x10(%rbp),%rax
  4044f6:	48 85 c0             	test   %rax,%rax
  4044f9:	78 07                	js     404502 <calc_period+0x4c>
  4044fb:	f2 48 0f 2a c0       	cvtsi2sd %rax,%xmm0
  404500:	eb 15                	jmp    404517 <calc_period+0x61>
  404502:	48 89 c2             	mov    %rax,%rdx
  404505:	48 d1 ea             	shr    %rdx
  404508:	83 e0 01             	and    $0x1,%eax
  40450b:	48 09 c2             	or     %rax,%rdx
  40450e:	f2 48 0f 2a c2       	cvtsi2sd %rdx,%xmm0
  404513:	f2 0f 58 c0          	addsd  %xmm0,%xmm0
  404517:	f2 0f 10 0d d9 3d 01 	movsd  0x13dd9(%rip),%xmm1        # 4182f8 <__PRETTY_FUNCTION__.7883+0x18>
  40451e:	00 
  40451f:	f2 0f 5e c1          	divsd  %xmm1,%xmm0
  404523:	f2 0f 11 45 f8       	movsd  %xmm0,-0x8(%rbp)
  404528:	f2 0f 10 45 f8       	movsd  -0x8(%rbp),%xmm0
  40452d:	5d                   	pop    %rbp
  40452e:	c3                   	retq   

000000000040452f <stats_print>:
  40452f:	55                   	push   %rbp
  404530:	48 89 e5             	mov    %rsp,%rbp
  404533:	48 83 ec 40          	sub    $0x40,%rsp
  404537:	48 89 7d c8          	mov    %rdi,-0x38(%rbp)
  40453b:	48 89 75 c0          	mov    %rsi,-0x40(%rbp)
  40453f:	48 c7 45 f0 a0 80 41 	movq   $0x4180a0,-0x10(%rbp)
  404546:	00 
  404547:	48 8b 55 c0          	mov    -0x40(%rbp),%rdx
  40454b:	48 8b 45 c8          	mov    -0x38(%rbp),%rax
  40454f:	48 89 d6             	mov    %rdx,%rsi
  404552:	48 89 c7             	mov    %rax,%rdi
  404555:	e8 5c ff ff ff       	callq  4044b6 <calc_period>
  40455a:	66 48 0f 7e c0       	movq   %xmm0,%rax
  40455f:	48 89 45 f8          	mov    %rax,-0x8(%rbp)
  404563:	66 0f ef c0          	pxor   %xmm0,%xmm0
  404567:	66 0f 2e 45 f8       	ucomisd -0x8(%rbp),%xmm0
  40456c:	7a 18                	jp     404586 <stats_print+0x57>
  40456e:	66 0f ef c0          	pxor   %xmm0,%xmm0
  404572:	66 0f 2e 45 f8       	ucomisd -0x8(%rbp),%xmm0
  404577:	75 0d                	jne    404586 <stats_print+0x57>
  404579:	f2 0f 10 05 7f 3d 01 	movsd  0x13d7f(%rip),%xmm0        # 418300 <__PRETTY_FUNCTION__.7883+0x20>
  404580:	00 
  404581:	f2 0f 11 45 f8       	movsd  %xmm0,-0x8(%rbp)
  404586:	48 8b 45 c8          	mov    -0x38(%rbp),%rax
  40458a:	48 8b 50 08          	mov    0x8(%rax),%rdx
  40458e:	48 8b 45 c0          	mov    -0x40(%rbp),%rax
  404592:	48 8b 40 08          	mov    0x8(%rax),%rax
  404596:	48 29 c2             	sub    %rax,%rdx
  404599:	48 89 d0             	mov    %rdx,%rax
  40459c:	48 89 45 e8          	mov    %rax,-0x18(%rbp)
  4045a0:	48 8b 45 e8          	mov    -0x18(%rbp),%rax
  4045a4:	48 85 c0             	test   %rax,%rax
  4045a7:	78 07                	js     4045b0 <stats_print+0x81>
  4045a9:	f2 48 0f 2a c0       	cvtsi2sd %rax,%xmm0
  4045ae:	eb 15                	jmp    4045c5 <stats_print+0x96>
  4045b0:	48 89 c2             	mov    %rax,%rdx
  4045b3:	48 d1 ea             	shr    %rdx
  4045b6:	83 e0 01             	and    $0x1,%eax
  4045b9:	48 09 c2             	or     %rax,%rdx
  4045bc:	f2 48 0f 2a c2       	cvtsi2sd %rdx,%xmm0
  4045c1:	f2 0f 58 c0          	addsd  %xmm0,%xmm0
  4045c5:	f2 0f 5e 45 f8       	divsd  -0x8(%rbp),%xmm0
  4045ca:	f2 0f 11 45 e0       	movsd  %xmm0,-0x20(%rbp)
  4045cf:	48 8b 45 c8          	mov    -0x38(%rbp),%rax
  4045d3:	48 8b 50 10          	mov    0x10(%rax),%rdx
  4045d7:	48 8b 45 c0          	mov    -0x40(%rbp),%rax
  4045db:	48 8b 40 10          	mov    0x10(%rax),%rax
  4045df:	48 29 c2             	sub    %rax,%rdx
  4045e2:	48 89 d0             	mov    %rdx,%rax
  4045e5:	48 89 45 d8          	mov    %rax,-0x28(%rbp)
  4045e9:	48 8b 45 d8          	mov    -0x28(%rbp),%rax
  4045ed:	48 c1 e0 03          	shl    $0x3,%rax
  4045f1:	48 85 c0             	test   %rax,%rax
  4045f4:	78 07                	js     4045fd <stats_print+0xce>
  4045f6:	f2 48 0f 2a c0       	cvtsi2sd %rax,%xmm0
  4045fb:	eb 15                	jmp    404612 <stats_print+0xe3>
  4045fd:	48 89 c2             	mov    %rax,%rdx
  404600:	48 d1 ea             	shr    %rdx
  404603:	83 e0 01             	and    $0x1,%eax
  404606:	48 09 c2             	or     %rax,%rdx
  404609:	f2 48 0f 2a c2       	cvtsi2sd %rdx,%xmm0
  40460e:	f2 0f 58 c0          	addsd  %xmm0,%xmm0
  404612:	f2 0f 5e 45 f8       	divsd  -0x8(%rbp),%xmm0
  404617:	f2 0f 10 0d e9 3c 01 	movsd  0x13ce9(%rip),%xmm1        # 418308 <__PRETTY_FUNCTION__.7883+0x28>
  40461e:	00 
  40461f:	f2 0f 5e c1          	divsd  %xmm1,%xmm0
  404623:	f2 0f 11 45 d0       	movsd  %xmm0,-0x30(%rbp)
  404628:	48 8b 45 c8          	mov    -0x38(%rbp),%rax
  40462c:	48 8b 40 10          	mov    0x10(%rax),%rax
  404630:	48 c1 e8 03          	shr    $0x3,%rax
  404634:	48 ba cf f7 53 e3 a5 	movabs $0x20c49ba5e353f7cf,%rdx
  40463b:	9b c4 20 
  40463e:	48 f7 e2             	mul    %rdx
  404641:	48 89 d1             	mov    %rdx,%rcx
  404644:	48 c1 e9 04          	shr    $0x4,%rcx
  404648:	48 8b 45 c8          	mov    -0x38(%rbp),%rax
  40464c:	48 8b 50 08          	mov    0x8(%rax),%rdx
  404650:	f2 0f 10 4d f8       	movsd  -0x8(%rbp),%xmm1
  404655:	f2 0f 10 45 d0       	movsd  -0x30(%rbp),%xmm0
  40465a:	48 8b 75 e0          	mov    -0x20(%rbp),%rsi
  40465e:	48 8b 45 f0          	mov    -0x10(%rbp),%rax
  404662:	66 0f 28 d1          	movapd %xmm1,%xmm2
  404666:	66 0f 28 c8          	movapd %xmm0,%xmm1
  40466a:	66 48 0f 6e c6       	movq   %rsi,%xmm0
  40466f:	be ec 80 41 00       	mov    $0x4180ec,%esi
  404674:	48 89 c7             	mov    %rax,%rdi
  404677:	b8 03 00 00 00       	mov    $0x3,%eax
  40467c:	e8 7f db ff ff       	callq  402200 <printf@plt>
  404681:	48 8b 45 c8          	mov    -0x38(%rbp),%rax
  404685:	48 8b 50 18          	mov    0x18(%rax),%rdx
  404689:	48 8b 45 c0          	mov    -0x40(%rbp),%rax
  40468d:	48 8b 40 18          	mov    0x18(%rax),%rax
  404691:	48 29 c2             	sub    %rax,%rdx
  404694:	48 89 d0             	mov    %rdx,%rax
  404697:	48 89 45 e8          	mov    %rax,-0x18(%rbp)
  40469b:	48 8b 45 e8          	mov    -0x18(%rbp),%rax
  40469f:	48 85 c0             	test   %rax,%rax
  4046a2:	78 07                	js     4046ab <stats_print+0x17c>
  4046a4:	f2 48 0f 2a c0       	cvtsi2sd %rax,%xmm0
  4046a9:	eb 15                	jmp    4046c0 <stats_print+0x191>
  4046ab:	48 89 c2             	mov    %rax,%rdx
  4046ae:	48 d1 ea             	shr    %rdx
  4046b1:	83 e0 01             	and    $0x1,%eax
  4046b4:	48 09 c2             	or     %rax,%rdx
  4046b7:	f2 48 0f 2a c2       	cvtsi2sd %rdx,%xmm0
  4046bc:	f2 0f 58 c0          	addsd  %xmm0,%xmm0
  4046c0:	f2 0f 5e 45 f8       	divsd  -0x8(%rbp),%xmm0
  4046c5:	f2 0f 11 45 e0       	movsd  %xmm0,-0x20(%rbp)
  4046ca:	48 8b 45 c8          	mov    -0x38(%rbp),%rax
  4046ce:	48 8b 50 20          	mov    0x20(%rax),%rdx
  4046d2:	48 8b 45 c0          	mov    -0x40(%rbp),%rax
  4046d6:	48 8b 40 20          	mov    0x20(%rax),%rax
  4046da:	48 29 c2             	sub    %rax,%rdx
  4046dd:	48 89 d0             	mov    %rdx,%rax
  4046e0:	48 89 45 d8          	mov    %rax,-0x28(%rbp)
  4046e4:	48 8b 45 d8          	mov    -0x28(%rbp),%rax
  4046e8:	48 c1 e0 03          	shl    $0x3,%rax
  4046ec:	48 85 c0             	test   %rax,%rax
  4046ef:	78 07                	js     4046f8 <stats_print+0x1c9>
  4046f1:	f2 48 0f 2a c0       	cvtsi2sd %rax,%xmm0
  4046f6:	eb 15                	jmp    40470d <stats_print+0x1de>
  4046f8:	48 89 c2             	mov    %rax,%rdx
  4046fb:	48 d1 ea             	shr    %rdx
  4046fe:	83 e0 01             	and    $0x1,%eax
  404701:	48 09 c2             	or     %rax,%rdx
  404704:	f2 48 0f 2a c2       	cvtsi2sd %rdx,%xmm0
  404709:	f2 0f 58 c0          	addsd  %xmm0,%xmm0
  40470d:	f2 0f 5e 45 f8       	divsd  -0x8(%rbp),%xmm0
  404712:	f2 0f 10 0d ee 3b 01 	movsd  0x13bee(%rip),%xmm1        # 418308 <__PRETTY_FUNCTION__.7883+0x28>
  404719:	00 
  40471a:	f2 0f 5e c1          	divsd  %xmm1,%xmm0
  40471e:	f2 0f 11 45 d0       	movsd  %xmm0,-0x30(%rbp)
  404723:	48 8b 45 c8          	mov    -0x38(%rbp),%rax
  404727:	48 8b 40 20          	mov    0x20(%rax),%rax
  40472b:	48 c1 e8 03          	shr    $0x3,%rax
  40472f:	48 ba cf f7 53 e3 a5 	movabs $0x20c49ba5e353f7cf,%rdx
  404736:	9b c4 20 
  404739:	48 f7 e2             	mul    %rdx
  40473c:	48 89 d1             	mov    %rdx,%rcx
  40473f:	48 c1 e9 04          	shr    $0x4,%rcx
  404743:	48 8b 45 c8          	mov    -0x38(%rbp),%rax
  404747:	48 8b 50 18          	mov    0x18(%rax),%rdx
  40474b:	f2 0f 10 4d f8       	movsd  -0x8(%rbp),%xmm1
  404750:	f2 0f 10 45 d0       	movsd  -0x30(%rbp),%xmm0
  404755:	48 8b 75 e0          	mov    -0x20(%rbp),%rsi
  404759:	48 8b 45 f0          	mov    -0x10(%rbp),%rax
  40475d:	66 0f 28 d1          	movapd %xmm1,%xmm2
  404761:	66 0f 28 c8          	movapd %xmm0,%xmm1
  404765:	66 48 0f 6e c6       	movq   %rsi,%xmm0
  40476a:	be f7 80 41 00       	mov    $0x4180f7,%esi
  40476f:	48 89 c7             	mov    %rax,%rdi
  404772:	b8 03 00 00 00       	mov    $0x3,%eax
  404777:	e8 84 da ff ff       	callq  402200 <printf@plt>
  40477c:	bf 0a 00 00 00       	mov    $0xa,%edi
  404781:	e8 da d8 ff ff       	callq  402060 <putchar@plt>
  404786:	90                   	nop
  404787:	c9                   	leaveq 
  404788:	c3                   	retq   

0000000000404789 <map_stats_print>:
  404789:	55                   	push   %rbp
  40478a:	48 89 e5             	mov    %rsp,%rbp
  40478d:	48 83 ec 40          	sub    $0x40,%rsp
  404791:	48 89 7d c8          	mov    %rdi,-0x38(%rbp)
  404795:	48 89 75 c0          	mov    %rsi,-0x40(%rbp)
  404799:	48 c7 45 f8 08 81 41 	movq   $0x418108,-0x8(%rbp)
  4047a0:	00 
  4047a1:	bf 02 00 00 00       	mov    $0x2,%edi
  4047a6:	e8 57 f0 ff ff       	callq  403802 <action2str>
  4047ab:	48 89 45 f0          	mov    %rax,-0x10(%rbp)
  4047af:	f2 0f 10 05 49 3b 01 	movsd  0x13b49(%rip),%xmm0        # 418300 <__PRETTY_FUNCTION__.7883+0x20>
  4047b6:	00 
  4047b7:	f2 0f 11 45 e8       	movsd  %xmm0,-0x18(%rbp)
  4047bc:	66 0f ef c0          	pxor   %xmm0,%xmm0
  4047c0:	66 0f 2e 45 e8       	ucomisd -0x18(%rbp),%xmm0
  4047c5:	7a 0b                	jp     4047d2 <map_stats_print+0x49>
  4047c7:	66 0f ef c0          	pxor   %xmm0,%xmm0
  4047cb:	66 0f 2e 45 e8       	ucomisd -0x18(%rbp),%xmm0
  4047d0:	74 79                	je     40484b <map_stats_print+0xc2>
  4047d2:	48 8b 45 c8          	mov    -0x38(%rbp),%rax
  4047d6:	48 8b 50 28          	mov    0x28(%rax),%rdx
  4047da:	48 8b 45 c0          	mov    -0x40(%rbp),%rax
  4047de:	48 8b 40 28          	mov    0x28(%rax),%rax
  4047e2:	48 29 c2             	sub    %rax,%rdx
  4047e5:	48 89 d0             	mov    %rdx,%rax
  4047e8:	48 89 45 e0          	mov    %rax,-0x20(%rbp)
  4047ec:	48 8b 45 e0          	mov    -0x20(%rbp),%rax
  4047f0:	48 85 c0             	test   %rax,%rax
  4047f3:	78 07                	js     4047fc <map_stats_print+0x73>
  4047f5:	f2 48 0f 2a c0       	cvtsi2sd %rax,%xmm0
  4047fa:	eb 15                	jmp    404811 <map_stats_print+0x88>
  4047fc:	48 89 c2             	mov    %rax,%rdx
  4047ff:	48 d1 ea             	shr    %rdx
  404802:	83 e0 01             	and    $0x1,%eax
  404805:	48 09 c2             	or     %rax,%rdx
  404808:	f2 48 0f 2a c2       	cvtsi2sd %rdx,%xmm0
  40480d:	f2 0f 58 c0          	addsd  %xmm0,%xmm0
  404811:	f2 0f 5e 45 e8       	divsd  -0x18(%rbp),%xmm0
  404816:	f2 0f 11 45 d8       	movsd  %xmm0,-0x28(%rbp)
  40481b:	48 8b 45 c8          	mov    -0x38(%rbp),%rax
  40481f:	48 8b 40 28          	mov    0x28(%rax),%rax
  404823:	48 85 c0             	test   %rax,%rax
  404826:	74 24                	je     40484c <map_stats_print+0xc3>
  404828:	48 8b 45 c8          	mov    -0x38(%rbp),%rax
  40482c:	8b 50 30             	mov    0x30(%rax),%edx
  40482f:	48 8b 45 c8          	mov    -0x38(%rbp),%rax
  404833:	48 8b 40 28          	mov    0x28(%rax),%rax
  404837:	48 89 c6             	mov    %rax,%rsi
  40483a:	bf 34 81 41 00       	mov    $0x418134,%edi
  40483f:	b8 00 00 00 00       	mov    $0x0,%eax
  404844:	e8 b7 d9 ff ff       	callq  402200 <printf@plt>
  404849:	eb 01                	jmp    40484c <map_stats_print+0xc3>
  40484b:	90                   	nop
  40484c:	c9                   	leaveq 
  40484d:	c3                   	retq   

000000000040484e <stats_collect>:
  40484e:	55                   	push   %rbp
  40484f:	48 89 e5             	mov    %rsp,%rbp
  404852:	48 83 ec 30          	sub    $0x30,%rsp
  404856:	89 7d dc             	mov    %edi,-0x24(%rbp)
  404859:	89 75 d8             	mov    %esi,-0x28(%rbp)
  40485c:	48 89 55 d0          	mov    %rdx,-0x30(%rbp)
  404860:	bf 48 81 41 00       	mov    $0x418148,%edi
  404865:	e8 a6 d8 ff ff       	callq  402110 <puts@plt>
  40486a:	c7 45 fc 02 00 00 00 	movl   $0x2,-0x4(%rbp)
  404871:	83 7d d8 02          	cmpl   $0x2,-0x28(%rbp)
  404875:	75 39                	jne    4048b0 <stats_collect+0x62>
  404877:	48 8d 55 e0          	lea    -0x20(%rbp),%rdx
  40487b:	48 8d 4d fc          	lea    -0x4(%rbp),%rcx
  40487f:	8b 45 dc             	mov    -0x24(%rbp),%eax
  404882:	48 89 ce             	mov    %rcx,%rsi
  404885:	89 c7                	mov    %eax,%edi
  404887:	e8 34 10 00 00       	callq  4058c0 <bpf_map_lookup_elem>
  40488c:	48 8b 45 e0          	mov    -0x20(%rbp),%rax
  404890:	48 85 c0             	test   %rax,%rax
  404893:	74 39                	je     4048ce <stats_collect+0x80>
  404895:	8b 55 e8             	mov    -0x18(%rbp),%edx
  404898:	48 8b 45 e0          	mov    -0x20(%rbp),%rax
  40489c:	48 89 c6             	mov    %rax,%rsi
  40489f:	bf 57 81 41 00       	mov    $0x418157,%edi
  4048a4:	b8 00 00 00 00       	mov    $0x0,%eax
  4048a9:	e8 52 d9 ff ff       	callq  402200 <printf@plt>
  4048ae:	eb 1e                	jmp    4048ce <stats_collect+0x80>
  4048b0:	48 8b 05 69 eb 01 00 	mov    0x1eb69(%rip),%rax        # 423420 <stderr@@GLIBC_2.2.5>
  4048b7:	8b 55 d8             	mov    -0x28(%rbp),%edx
  4048ba:	be 68 81 41 00       	mov    $0x418168,%esi
  4048bf:	48 89 c7             	mov    %rax,%rdi
  4048c2:	b8 00 00 00 00       	mov    $0x0,%eax
  4048c7:	e8 74 da ff ff       	callq  402340 <fprintf@plt>
  4048cc:	eb 01                	jmp    4048cf <stats_collect+0x81>
  4048ce:	90                   	nop
  4048cf:	c9                   	leaveq 
  4048d0:	c3                   	retq   

00000000004048d1 <stats_map_poll>:
  4048d1:	55                   	push   %rbp
  4048d2:	48 89 e5             	mov    %rsp,%rbp
  4048d5:	48 81 ec 90 00 00 00 	sub    $0x90,%rsp
  4048dc:	48 89 bd 78 ff ff ff 	mov    %rdi,-0x88(%rbp)
  4048e3:	48 8b 85 78 ff ff ff 	mov    -0x88(%rbp),%rax
  4048ea:	8b 00                	mov    (%rax),%eax
  4048ec:	89 45 fc             	mov    %eax,-0x4(%rbp)
  4048ef:	48 c7 45 80 00 00 00 	movq   $0x0,-0x80(%rbp)
  4048f6:	00 
  4048f7:	48 c7 45 88 00 00 00 	movq   $0x0,-0x78(%rbp)
  4048fe:	00 
  4048ff:	48 c7 45 90 00 00 00 	movq   $0x0,-0x70(%rbp)
  404906:	00 
  404907:	48 c7 45 98 00 00 00 	movq   $0x0,-0x68(%rbp)
  40490e:	00 
  40490f:	48 c7 45 a0 00 00 00 	movq   $0x0,-0x60(%rbp)
  404916:	00 
  404917:	48 c7 45 a8 00 00 00 	movq   $0x0,-0x58(%rbp)
  40491e:	00 
  40491f:	48 c7 45 b0 00 00 00 	movq   $0x0,-0x50(%rbp)
  404926:	00 
  404927:	be 91 81 41 00       	mov    $0x418191,%esi
  40492c:	bf 01 00 00 00       	mov    $0x1,%edi
  404931:	e8 3a db ff ff       	callq  402470 <setlocale@plt>
  404936:	8b 05 c8 e9 01 00    	mov    0x1e9c8(%rip),%eax        # 423304 <verbose>
  40493c:	85 c0                	test   %eax,%eax
  40493e:	74 1e                	je     40495e <stats_map_poll+0x8d>
  404940:	bf 0a 00 00 00       	mov    $0xa,%edi
  404945:	e8 16 d7 ff ff       	callq  402060 <putchar@plt>
  40494a:	be 97 81 41 00       	mov    $0x418197,%esi
  40494f:	bf a2 81 41 00       	mov    $0x4181a2,%edi
  404954:	b8 00 00 00 00       	mov    $0x0,%eax
  404959:	e8 a2 d8 ff ff       	callq  402200 <printf@plt>
  40495e:	48 8b 45 80          	mov    -0x80(%rbp),%rax
  404962:	48 8b 55 88          	mov    -0x78(%rbp),%rdx
  404966:	48 89 45 c0          	mov    %rax,-0x40(%rbp)
  40496a:	48 89 55 c8          	mov    %rdx,-0x38(%rbp)
  40496e:	48 8b 45 90          	mov    -0x70(%rbp),%rax
  404972:	48 8b 55 98          	mov    -0x68(%rbp),%rdx
  404976:	48 89 45 d0          	mov    %rax,-0x30(%rbp)
  40497a:	48 89 55 d8          	mov    %rdx,-0x28(%rbp)
  40497e:	48 8b 45 a0          	mov    -0x60(%rbp),%rax
  404982:	48 8b 55 a8          	mov    -0x58(%rbp),%rdx
  404986:	48 89 45 e0          	mov    %rax,-0x20(%rbp)
  40498a:	48 89 55 e8          	mov    %rdx,-0x18(%rbp)
  40498e:	48 8b 45 b0          	mov    -0x50(%rbp),%rax
  404992:	48 89 45 f0          	mov    %rax,-0x10(%rbp)
  404996:	48 8d 55 80          	lea    -0x80(%rbp),%rdx
  40499a:	8b 45 fc             	mov    -0x4(%rbp),%eax
  40499d:	be 02 00 00 00       	mov    $0x2,%esi
  4049a2:	89 c7                	mov    %eax,%edi
  4049a4:	e8 a5 fe ff ff       	callq  40484e <stats_collect>
  4049a9:	bf 01 00 00 00       	mov    $0x1,%edi
  4049ae:	e8 ed db ff ff       	callq  4025a0 <sleep@plt>
  4049b3:	eb a9                	jmp    40495e <stats_map_poll+0x8d>

00000000004049b5 <stats_poll>:
  4049b5:	55                   	push   %rbp
  4049b6:	48 89 e5             	mov    %rsp,%rbp
  4049b9:	53                   	push   %rbx
  4049ba:	48 83 ec 28          	sub    $0x28,%rsp
  4049be:	48 89 7d d8          	mov    %rdi,-0x28(%rbp)
  4049c2:	c7 45 ec 02 00 00 00 	movl   $0x2,-0x14(%rbp)
  4049c9:	48 8b 45 d8          	mov    -0x28(%rbp),%rax
  4049cd:	48 89 45 e0          	mov    %rax,-0x20(%rbp)
  4049d1:	e8 84 fa ff ff       	callq  40445a <gettime>
  4049d6:	48 89 05 83 ea 01 00 	mov    %rax,0x1ea83(%rip)        # 423460 <previous_stats.8023>
  4049dd:	be 91 81 41 00       	mov    $0x418191,%esi
  4049e2:	bf 01 00 00 00       	mov    $0x1,%edi
  4049e7:	e8 84 da ff ff       	callq  402470 <setlocale@plt>
  4049ec:	e9 97 00 00 00       	jmpq   404a88 <stats_poll+0xd3>
  4049f1:	8b 45 ec             	mov    -0x14(%rbp),%eax
  4049f4:	89 c7                	mov    %eax,%edi
  4049f6:	e8 a5 db ff ff       	callq  4025a0 <sleep@plt>
  4049fb:	e8 5a fa ff ff       	callq  40445a <gettime>
  404a00:	48 8b 55 e0          	mov    -0x20(%rbp),%rdx
  404a04:	48 89 82 78 80 00 00 	mov    %rax,0x8078(%rdx)
  404a0b:	48 8b 45 e0          	mov    -0x20(%rbp),%rax
  404a0f:	48 05 78 80 00 00    	add    $0x8078,%rax
  404a15:	be 60 34 42 00       	mov    $0x423460,%esi
  404a1a:	48 89 c7             	mov    %rax,%rdi
  404a1d:	e8 0d fb ff ff       	callq  40452f <stats_print>
  404a22:	48 8b 45 e0          	mov    -0x20(%rbp),%rax
  404a26:	48 8b 88 78 80 00 00 	mov    0x8078(%rax),%rcx
  404a2d:	48 8b 98 80 80 00 00 	mov    0x8080(%rax),%rbx
  404a34:	48 89 0d 25 ea 01 00 	mov    %rcx,0x1ea25(%rip)        # 423460 <previous_stats.8023>
  404a3b:	48 89 1d 26 ea 01 00 	mov    %rbx,0x1ea26(%rip)        # 423468 <previous_stats.8023+0x8>
  404a42:	48 8b 88 88 80 00 00 	mov    0x8088(%rax),%rcx
  404a49:	48 8b 98 90 80 00 00 	mov    0x8090(%rax),%rbx
  404a50:	48 89 0d 19 ea 01 00 	mov    %rcx,0x1ea19(%rip)        # 423470 <previous_stats.8023+0x10>
  404a57:	48 89 1d 1a ea 01 00 	mov    %rbx,0x1ea1a(%rip)        # 423478 <previous_stats.8023+0x18>
  404a5e:	48 8b 88 98 80 00 00 	mov    0x8098(%rax),%rcx
  404a65:	48 8b 98 a0 80 00 00 	mov    0x80a0(%rax),%rbx
  404a6c:	48 89 0d 0d ea 01 00 	mov    %rcx,0x1ea0d(%rip)        # 423480 <previous_stats.8023+0x20>
  404a73:	48 89 1d 0e ea 01 00 	mov    %rbx,0x1ea0e(%rip)        # 423488 <previous_stats.8023+0x28>
  404a7a:	48 8b 80 a8 80 00 00 	mov    0x80a8(%rax),%rax
  404a81:	48 89 05 08 ea 01 00 	mov    %rax,0x1ea08(%rip)        # 423490 <previous_stats.8023+0x30>
  404a88:	0f b6 05 b1 e9 01 00 	movzbl 0x1e9b1(%rip),%eax        # 423440 <global_exit>
  404a8f:	83 f0 01             	xor    $0x1,%eax
  404a92:	84 c0                	test   %al,%al
  404a94:	0f 85 57 ff ff ff    	jne    4049f1 <stats_poll+0x3c>
  404a9a:	b8 00 00 00 00       	mov    $0x0,%eax
  404a9f:	48 83 c4 28          	add    $0x28,%rsp
  404aa3:	5b                   	pop    %rbx
  404aa4:	5d                   	pop    %rbp
  404aa5:	c3                   	retq   

0000000000404aa6 <exit_application>:
  404aa6:	55                   	push   %rbp
  404aa7:	48 89 e5             	mov    %rsp,%rbp
  404aaa:	89 7d fc             	mov    %edi,-0x4(%rbp)
  404aad:	c6 05 8c e9 01 00 01 	movb   $0x1,0x1e98c(%rip)        # 423440 <global_exit>
  404ab4:	90                   	nop
  404ab5:	5d                   	pop    %rbp
  404ab6:	c3                   	retq   

0000000000404ab7 <main>:
  404ab7:	55                   	push   %rbp
  404ab8:	48 89 e5             	mov    %rsp,%rbp
  404abb:	48 81 ec 10 05 00 00 	sub    $0x510,%rsp
  404ac2:	89 bd fc fa ff ff    	mov    %edi,-0x504(%rbp)
  404ac8:	48 89 b5 f0 fa ff ff 	mov    %rsi,-0x510(%rbp)
  404acf:	48 c7 45 a0 ff ff ff 	movq   $0xffffffffffffffff,-0x60(%rbp)
  404ad6:	ff 
  404ad7:	48 c7 45 a8 ff ff ff 	movq   $0xffffffffffffffff,-0x58(%rbp)
  404ade:	ff 
  404adf:	48 8d 95 10 fb ff ff 	lea    -0x4f0(%rbp),%rdx
  404ae6:	b8 00 00 00 00       	mov    $0x0,%eax
  404aeb:	b9 92 00 00 00       	mov    $0x92,%ecx
  404af0:	48 89 d7             	mov    %rdx,%rdi
  404af3:	f3 48 ab             	rep stos %rax,%es:(%rdi)
  404af6:	c7 85 14 fb ff ff ff 	movl   $0xffffffff,-0x4ec(%rbp)
  404afd:	ff ff ff 
  404b00:	48 b8 61 66 5f 78 64 	movabs $0x6b5f7064785f6661,%rax
  404b07:	70 5f 6b 
  404b0a:	48 ba 65 72 6e 2e 6f 	movabs $0x6f2e6e7265,%rdx
  404b11:	00 00 00 
  404b14:	48 89 85 52 fd ff ff 	mov    %rax,-0x2ae(%rbp)
  404b1b:	48 89 95 5a fd ff ff 	mov    %rdx,-0x2a6(%rbp)
  404b22:	48 8d 95 62 fd ff ff 	lea    -0x29e(%rbp),%rdx
  404b29:	b8 00 00 00 00       	mov    $0x0,%eax
  404b2e:	66 89 02             	mov    %ax,(%rdx)
  404b31:	48 83 c2 02          	add    $0x2,%rdx
  404b35:	89 02                	mov    %eax,(%rdx)
  404b37:	48 83 c2 04          	add    $0x4,%rdx
  404b3b:	b9 3d 00 00 00       	mov    $0x3d,%ecx
  404b40:	48 89 d7             	mov    %rdx,%rdi
  404b43:	f3 48 ab             	rep stos %rax,%es:(%rdi)
  404b46:	48 89 fa             	mov    %rdi,%rdx
  404b49:	66 89 02             	mov    %ax,(%rdx)
  404b4c:	48 83 c2 02          	add    $0x2,%rdx
  404b50:	48 b8 78 64 70 5f 66 	movabs $0x746c69665f706478,%rax
  404b57:	69 6c 74 
  404b5a:	ba 65 72 00 00       	mov    $0x7265,%edx
  404b5f:	48 89 85 52 ff ff ff 	mov    %rax,-0xae(%rbp)
  404b66:	48 89 95 5a ff ff ff 	mov    %rdx,-0xa6(%rbp)
  404b6d:	48 c7 85 62 ff ff ff 	movq   $0x0,-0x9e(%rbp)
  404b74:	00 00 00 00 
  404b78:	48 c7 85 6a ff ff ff 	movq   $0x0,-0x96(%rbp)
  404b7f:	00 00 00 00 
  404b83:	48 c7 45 f8 00 00 00 	movq   $0x0,-0x8(%rbp)
  404b8a:	00 
  404b8b:	be a6 4a 40 00       	mov    $0x404aa6,%esi
  404b90:	bf 02 00 00 00       	mov    $0x2,%edi
  404b95:	e8 96 d7 ff ff       	callq  402330 <signal@plt>
  404b9a:	48 8b 0d af e7 01 00 	mov    0x1e7af(%rip),%rcx        # 423350 <__doc__>
  404ba1:	48 8d 95 10 fb ff ff 	lea    -0x4f0(%rbp),%rdx
  404ba8:	48 8b b5 f0 fa ff ff 	mov    -0x510(%rbp),%rsi
  404baf:	8b 85 fc fa ff ff    	mov    -0x504(%rbp),%eax
  404bb5:	49 89 c8             	mov    %rcx,%r8
  404bb8:	48 89 d1             	mov    %rdx,%rcx
  404bbb:	ba 00 7d 41 00       	mov    $0x417d00,%edx
  404bc0:	89 c7                	mov    %eax,%edi
  404bc2:	e8 7e de ff ff       	callq  402a45 <parse_cmdline_args>
  404bc7:	8b 85 14 fb ff ff    	mov    -0x4ec(%rbp),%eax
  404bcd:	83 f8 ff             	cmp    $0xffffffff,%eax
  404bd0:	75 55                	jne    404c27 <main+0x170>
  404bd2:	48 8b 05 47 e8 01 00 	mov    0x1e847(%rip),%rax        # 423420 <stderr@@GLIBC_2.2.5>
  404bd9:	48 89 c1             	mov    %rax,%rcx
  404bdc:	ba 26 00 00 00       	mov    $0x26,%edx
  404be1:	be 01 00 00 00       	mov    $0x1,%esi
  404be6:	bf b0 81 41 00       	mov    $0x4181b0,%edi
  404beb:	e8 60 d9 ff ff       	callq  402550 <fwrite@plt>
  404bf0:	83 bd fc fa ff ff 01 	cmpl   $0x1,-0x504(%rbp)
  404bf7:	0f 94 c0             	sete   %al
  404bfa:	0f b6 d0             	movzbl %al,%edx
  404bfd:	48 8b 35 4c e7 01 00 	mov    0x1e74c(%rip),%rsi        # 423350 <__doc__>
  404c04:	48 8b 85 f0 fa ff ff 	mov    -0x510(%rbp),%rax
  404c0b:	48 8b 00             	mov    (%rax),%rax
  404c0e:	89 d1                	mov    %edx,%ecx
  404c10:	ba 00 7d 41 00       	mov    $0x417d00,%edx
  404c15:	48 89 c7             	mov    %rax,%rdi
  404c18:	e8 ab dc ff ff       	callq  4028c8 <usage>
  404c1d:	b8 02 00 00 00       	mov    $0x2,%eax
  404c22:	e9 81 03 00 00       	jmpq   404fa8 <main+0x4f1>
  404c27:	0f b6 85 50 fb ff ff 	movzbl -0x4b0(%rbp),%eax
  404c2e:	84 c0                	test   %al,%al
  404c30:	74 1f                	je     404c51 <main+0x19a>
  404c32:	8b 8d 10 fb ff ff    	mov    -0x4f0(%rbp),%ecx
  404c38:	8b 85 14 fb ff ff    	mov    -0x4ec(%rbp),%eax
  404c3e:	ba 00 00 00 00       	mov    $0x0,%edx
  404c43:	89 ce                	mov    %ecx,%esi
  404c45:	89 c7                	mov    %eax,%edi
  404c47:	e8 4f e4 ff ff       	callq  40309b <xdp_link_detach>
  404c4c:	e9 57 03 00 00       	jmpq   404fa8 <main+0x4f1>
  404c51:	0f b6 85 52 fd ff ff 	movzbl -0x2ae(%rbp),%eax
  404c58:	84 c0                	test   %al,%al
  404c5a:	0f 84 d9 00 00 00    	je     404d39 <main+0x282>
  404c60:	48 8d 85 10 fb ff ff 	lea    -0x4f0(%rbp),%rax
  404c67:	48 89 c7             	mov    %rax,%rdi
  404c6a:	e8 c9 e9 ff ff       	callq  403638 <load_bpf_and_xdp_attach>
  404c6f:	48 89 45 f8          	mov    %rax,-0x8(%rbp)
  404c73:	48 83 7d f8 00       	cmpq   $0x0,-0x8(%rbp)
  404c78:	75 0a                	jne    404c84 <main+0x1cd>
  404c7a:	bf 01 00 00 00       	mov    $0x1,%edi
  404c7f:	e8 bc d8 ff ff       	callq  402540 <exit@plt>
  404c84:	48 8b 45 f8          	mov    -0x8(%rbp),%rax
  404c88:	be d7 81 41 00       	mov    $0x4181d7,%esi
  404c8d:	48 89 c7             	mov    %rax,%rdi
  404c90:	e8 db 8f 00 00       	callq  40dc70 <bpf_object__find_map_by_name>
  404c95:	48 89 45 f0          	mov    %rax,-0x10(%rbp)
  404c99:	48 8b 45 f0          	mov    -0x10(%rbp),%rax
  404c9d:	48 89 c7             	mov    %rax,%rdi
  404ca0:	e8 9b 8c 00 00       	callq  40d940 <bpf_map__fd>
  404ca5:	89 45 ec             	mov    %eax,-0x14(%rbp)
  404ca8:	83 7d ec 00          	cmpl   $0x0,-0x14(%rbp)
  404cac:	79 30                	jns    404cde <main+0x227>
  404cae:	8b 45 ec             	mov    -0x14(%rbp),%eax
  404cb1:	89 c7                	mov    %eax,%edi
  404cb3:	e8 d8 d8 ff ff       	callq  402590 <strerror@plt>
  404cb8:	48 89 c2             	mov    %rax,%rdx
  404cbb:	48 8b 05 5e e7 01 00 	mov    0x1e75e(%rip),%rax        # 423420 <stderr@@GLIBC_2.2.5>
  404cc2:	be e0 81 41 00       	mov    $0x4181e0,%esi
  404cc7:	48 89 c7             	mov    %rax,%rdi
  404cca:	b8 00 00 00 00       	mov    $0x0,%eax
  404ccf:	e8 6c d6 ff ff       	callq  402340 <fprintf@plt>
  404cd4:	bf 01 00 00 00       	mov    $0x1,%edi
  404cd9:	e8 62 d8 ff ff       	callq  402540 <exit@plt>
  404cde:	48 8b 45 f8          	mov    -0x8(%rbp),%rax
  404ce2:	be fe 81 41 00       	mov    $0x4181fe,%esi
  404ce7:	48 89 c7             	mov    %rax,%rdi
  404cea:	e8 81 8f 00 00       	callq  40dc70 <bpf_object__find_map_by_name>
  404cef:	48 89 45 e0          	mov    %rax,-0x20(%rbp)
  404cf3:	48 8b 45 e0          	mov    -0x20(%rbp),%rax
  404cf7:	48 89 c7             	mov    %rax,%rdi
  404cfa:	e8 41 8c 00 00       	callq  40d940 <bpf_map__fd>
  404cff:	89 45 bc             	mov    %eax,-0x44(%rbp)
  404d02:	8b 45 bc             	mov    -0x44(%rbp),%eax
  404d05:	85 c0                	test   %eax,%eax
  404d07:	79 30                	jns    404d39 <main+0x282>
  404d09:	8b 45 bc             	mov    -0x44(%rbp),%eax
  404d0c:	89 c7                	mov    %eax,%edi
  404d0e:	e8 7d d8 ff ff       	callq  402590 <strerror@plt>
  404d13:	48 89 c2             	mov    %rax,%rdx
  404d16:	48 8b 05 03 e7 01 00 	mov    0x1e703(%rip),%rax        # 423420 <stderr@@GLIBC_2.2.5>
  404d1d:	be e0 81 41 00       	mov    $0x4181e0,%esi
  404d22:	48 89 c7             	mov    %rax,%rdi
  404d25:	b8 00 00 00 00       	mov    $0x0,%eax
  404d2a:	e8 11 d6 ff ff       	callq  402340 <fprintf@plt>
  404d2f:	bf 01 00 00 00       	mov    $0x1,%edi
  404d34:	e8 07 d8 ff ff       	callq  402540 <exit@plt>
  404d39:	48 8d 45 a0          	lea    -0x60(%rbp),%rax
  404d3d:	48 89 c6             	mov    %rax,%rsi
  404d40:	bf 08 00 00 00       	mov    $0x8,%edi
  404d45:	e8 c6 d6 ff ff       	callq  402410 <setrlimit@plt>
  404d4a:	85 c0                	test   %eax,%eax
  404d4c:	74 34                	je     404d82 <main+0x2cb>
  404d4e:	e8 3d d3 ff ff       	callq  402090 <__errno_location@plt>
  404d53:	8b 00                	mov    (%rax),%eax
  404d55:	89 c7                	mov    %eax,%edi
  404d57:	e8 34 d8 ff ff       	callq  402590 <strerror@plt>
  404d5c:	48 89 c2             	mov    %rax,%rdx
  404d5f:	48 8b 05 ba e6 01 00 	mov    0x1e6ba(%rip),%rax        # 423420 <stderr@@GLIBC_2.2.5>
  404d66:	be 10 82 41 00       	mov    $0x418210,%esi
  404d6b:	48 89 c7             	mov    %rax,%rdi
  404d6e:	b8 00 00 00 00       	mov    $0x0,%eax
  404d73:	e8 c8 d5 ff ff       	callq  402340 <fprintf@plt>
  404d78:	bf 01 00 00 00       	mov    $0x1,%edi
  404d7d:	e8 be d7 ff ff       	callq  402540 <exit@plt>
  404d82:	48 c7 45 d8 00 00 00 	movq   $0x1000000,-0x28(%rbp)
  404d89:	01 
  404d8a:	e8 a1 d7 ff ff       	callq  402530 <getpagesize@plt>
  404d8f:	48 63 c8             	movslq %eax,%rcx
  404d92:	48 8b 55 d8          	mov    -0x28(%rbp),%rdx
  404d96:	48 8d 45 b0          	lea    -0x50(%rbp),%rax
  404d9a:	48 89 ce             	mov    %rcx,%rsi
  404d9d:	48 89 c7             	mov    %rax,%rdi
  404da0:	e8 cb d7 ff ff       	callq  402570 <posix_memalign@plt>
  404da5:	85 c0                	test   %eax,%eax
  404da7:	74 34                	je     404ddd <main+0x326>
  404da9:	e8 e2 d2 ff ff       	callq  402090 <__errno_location@plt>
  404dae:	8b 00                	mov    (%rax),%eax
  404db0:	89 c7                	mov    %eax,%edi
  404db2:	e8 d9 d7 ff ff       	callq  402590 <strerror@plt>
  404db7:	48 89 c2             	mov    %rax,%rdx
  404dba:	48 8b 05 5f e6 01 00 	mov    0x1e65f(%rip),%rax        # 423420 <stderr@@GLIBC_2.2.5>
  404dc1:	be 38 82 41 00       	mov    $0x418238,%esi
  404dc6:	48 89 c7             	mov    %rax,%rdi
  404dc9:	b8 00 00 00 00       	mov    $0x0,%eax
  404dce:	e8 6d d5 ff ff       	callq  402340 <fprintf@plt>
  404dd3:	bf 01 00 00 00       	mov    $0x1,%edi
  404dd8:	e8 63 d7 ff ff       	callq  402540 <exit@plt>
  404ddd:	48 8b 45 b0          	mov    -0x50(%rbp),%rax
  404de1:	48 8b 55 d8          	mov    -0x28(%rbp),%rdx
  404de5:	48 89 d6             	mov    %rdx,%rsi
  404de8:	48 89 c7             	mov    %rax,%rdi
  404deb:	e8 68 ef ff ff       	callq  403d58 <configure_xsk_umem>
  404df0:	48 89 45 d0          	mov    %rax,-0x30(%rbp)
  404df4:	48 83 7d d0 00       	cmpq   $0x0,-0x30(%rbp)
  404df9:	75 34                	jne    404e2f <main+0x378>
  404dfb:	e8 90 d2 ff ff       	callq  402090 <__errno_location@plt>
  404e00:	8b 00                	mov    (%rax),%eax
  404e02:	89 c7                	mov    %eax,%edi
  404e04:	e8 87 d7 ff ff       	callq  402590 <strerror@plt>
  404e09:	48 89 c2             	mov    %rax,%rdx
  404e0c:	48 8b 05 0d e6 01 00 	mov    0x1e60d(%rip),%rax        # 423420 <stderr@@GLIBC_2.2.5>
  404e13:	be 68 82 41 00       	mov    $0x418268,%esi
  404e18:	48 89 c7             	mov    %rax,%rdi
  404e1b:	b8 00 00 00 00       	mov    $0x0,%eax
  404e20:	e8 1b d5 ff ff       	callq  402340 <fprintf@plt>
  404e25:	bf 01 00 00 00       	mov    $0x1,%edi
  404e2a:	e8 11 d7 ff ff       	callq  402540 <exit@plt>
  404e2f:	48 8b 55 d0          	mov    -0x30(%rbp),%rdx
  404e33:	48 8d 85 10 fb ff ff 	lea    -0x4f0(%rbp),%rax
  404e3a:	48 89 d6             	mov    %rdx,%rsi
  404e3d:	48 89 c7             	mov    %rax,%rdi
  404e40:	e8 8f f0 ff ff       	callq  403ed4 <xsk_configure_socket>
  404e45:	48 89 45 c8          	mov    %rax,-0x38(%rbp)
  404e49:	48 83 7d c8 00       	cmpq   $0x0,-0x38(%rbp)
  404e4e:	75 34                	jne    404e84 <main+0x3cd>
  404e50:	e8 3b d2 ff ff       	callq  402090 <__errno_location@plt>
  404e55:	8b 00                	mov    (%rax),%eax
  404e57:	89 c7                	mov    %eax,%edi
  404e59:	e8 32 d7 ff ff       	callq  402590 <strerror@plt>
  404e5e:	48 89 c2             	mov    %rax,%rdx
  404e61:	48 8b 05 b8 e5 01 00 	mov    0x1e5b8(%rip),%rax        # 423420 <stderr@@GLIBC_2.2.5>
  404e68:	be 88 82 41 00       	mov    $0x418288,%esi
  404e6d:	48 89 c7             	mov    %rax,%rdi
  404e70:	b8 00 00 00 00       	mov    $0x0,%eax
  404e75:	e8 c6 d4 ff ff       	callq  402340 <fprintf@plt>
  404e7a:	bf 01 00 00 00       	mov    $0x1,%edi
  404e7f:	e8 bc d6 ff ff       	callq  402540 <exit@plt>
  404e84:	8b 05 7a e4 01 00    	mov    0x1e47a(%rip),%eax        # 423304 <verbose>
  404e8a:	85 c0                	test   %eax,%eax
  404e8c:	0f 84 c1 00 00 00    	je     404f53 <main+0x49c>
  404e92:	48 8b 55 c8          	mov    -0x38(%rbp),%rdx
  404e96:	48 8d 85 08 fb ff ff 	lea    -0x4f8(%rbp),%rax
  404e9d:	48 89 d1             	mov    %rdx,%rcx
  404ea0:	ba b5 49 40 00       	mov    $0x4049b5,%edx
  404ea5:	be 00 00 00 00       	mov    $0x0,%esi
  404eaa:	48 89 c7             	mov    %rax,%rdi
  404ead:	e8 be d1 ff ff       	callq  402070 <pthread_create@plt>
  404eb2:	89 45 c4             	mov    %eax,-0x3c(%rbp)
  404eb5:	83 7d c4 00          	cmpl   $0x0,-0x3c(%rbp)
  404eb9:	74 34                	je     404eef <main+0x438>
  404ebb:	e8 d0 d1 ff ff       	callq  402090 <__errno_location@plt>
  404ec0:	8b 00                	mov    (%rax),%eax
  404ec2:	89 c7                	mov    %eax,%edi
  404ec4:	e8 c7 d6 ff ff       	callq  402590 <strerror@plt>
  404ec9:	48 89 c2             	mov    %rax,%rdx
  404ecc:	48 8b 05 4d e5 01 00 	mov    0x1e54d(%rip),%rax        # 423420 <stderr@@GLIBC_2.2.5>
  404ed3:	be b0 82 41 00       	mov    $0x4182b0,%esi
  404ed8:	48 89 c7             	mov    %rax,%rdi
  404edb:	b8 00 00 00 00       	mov    $0x0,%eax
  404ee0:	e8 5b d4 ff ff       	callq  402340 <fprintf@plt>
  404ee5:	bf 01 00 00 00       	mov    $0x1,%edi
  404eea:	e8 51 d6 ff ff       	callq  402540 <exit@plt>
  404eef:	8b 45 bc             	mov    -0x44(%rbp),%eax
  404ef2:	85 c0                	test   %eax,%eax
  404ef4:	78 5d                	js     404f53 <main+0x49c>
  404ef6:	48 8d 55 bc          	lea    -0x44(%rbp),%rdx
  404efa:	48 8d 85 00 fb ff ff 	lea    -0x500(%rbp),%rax
  404f01:	48 89 d1             	mov    %rdx,%rcx
  404f04:	ba d1 48 40 00       	mov    $0x4048d1,%edx
  404f09:	be 00 00 00 00       	mov    $0x0,%esi
  404f0e:	48 89 c7             	mov    %rax,%rdi
  404f11:	e8 5a d1 ff ff       	callq  402070 <pthread_create@plt>
  404f16:	89 45 c0             	mov    %eax,-0x40(%rbp)
  404f19:	83 7d c0 00          	cmpl   $0x0,-0x40(%rbp)
  404f1d:	74 34                	je     404f53 <main+0x49c>
  404f1f:	e8 6c d1 ff ff       	callq  402090 <__errno_location@plt>
  404f24:	8b 00                	mov    (%rax),%eax
  404f26:	89 c7                	mov    %eax,%edi
  404f28:	e8 63 d6 ff ff       	callq  402590 <strerror@plt>
  404f2d:	48 89 c2             	mov    %rax,%rdx
  404f30:	48 8b 05 e9 e4 01 00 	mov    0x1e4e9(%rip),%rax        # 423420 <stderr@@GLIBC_2.2.5>
  404f37:	be b0 82 41 00       	mov    $0x4182b0,%esi
  404f3c:	48 89 c7             	mov    %rax,%rdi
  404f3f:	b8 00 00 00 00       	mov    $0x0,%eax
  404f44:	e8 f7 d3 ff ff       	callq  402340 <fprintf@plt>
  404f49:	bf 01 00 00 00       	mov    $0x1,%edi
  404f4e:	e8 ed d5 ff ff       	callq  402540 <exit@plt>
  404f53:	48 8b 55 c8          	mov    -0x38(%rbp),%rdx
  404f57:	48 8d 85 10 fb ff ff 	lea    -0x4f0(%rbp),%rax
  404f5e:	48 89 d6             	mov    %rdx,%rsi
  404f61:	48 89 c7             	mov    %rax,%rdi
  404f64:	e8 51 f4 ff ff       	callq  4043ba <rx_and_process>
  404f69:	48 8b 45 c8          	mov    -0x38(%rbp),%rax
  404f6d:	48 8b 40 68          	mov    0x68(%rax),%rax
  404f71:	48 89 c7             	mov    %rax,%rdi
  404f74:	e8 c7 d4 00 00       	callq  412440 <xsk_socket__delete>
  404f79:	48 8b 45 d0          	mov    -0x30(%rbp),%rax
  404f7d:	48 8b 40 60          	mov    0x60(%rax),%rax
  404f81:	48 89 c7             	mov    %rax,%rdi
  404f84:	e8 07 d4 00 00       	callq  412390 <xsk_umem__delete>
  404f89:	8b 8d 10 fb ff ff    	mov    -0x4f0(%rbp),%ecx
  404f8f:	8b 85 14 fb ff ff    	mov    -0x4ec(%rbp),%eax
  404f95:	ba 00 00 00 00       	mov    $0x0,%edx
  404f9a:	89 ce                	mov    %ecx,%esi
  404f9c:	89 c7                	mov    %eax,%edi
  404f9e:	e8 f8 e0 ff ff       	callq  40309b <xdp_link_detach>
  404fa3:	b8 00 00 00 00       	mov    $0x0,%eax
  404fa8:	c9                   	leaveq 
  404fa9:	c3                   	retq   
  404faa:	66 0f 1f 44 00 00    	nopw   0x0(%rax,%rax,1)

0000000000404fb0 <bpf_obj_get_next_id>:
  404fb0:	53                   	push   %rbx
  404fb1:	48 89 f3             	mov    %rsi,%rbx
  404fb4:	89 d6                	mov    %edx,%esi
  404fb6:	41 89 f8             	mov    %edi,%r8d
  404fb9:	31 c0                	xor    %eax,%eax
  404fbb:	b9 0e 00 00 00       	mov    $0xe,%ecx
  404fc0:	48 83 ec 70          	sub    $0x70,%rsp
  404fc4:	48 89 e2             	mov    %rsp,%rdx
  404fc7:	48 89 d7             	mov    %rdx,%rdi
  404fca:	f3 48 ab             	rep stos %rax,%es:(%rdi)
  404fcd:	b9 70 00 00 00       	mov    $0x70,%ecx
  404fd2:	bf 41 01 00 00       	mov    $0x141,%edi
  404fd7:	44 89 04 24          	mov    %r8d,(%rsp)
  404fdb:	e8 70 d3 ff ff       	callq  402350 <syscall@plt>
  404fe0:	85 c0                	test   %eax,%eax
  404fe2:	75 06                	jne    404fea <bpf_obj_get_next_id+0x3a>
  404fe4:	8b 54 24 04          	mov    0x4(%rsp),%edx
  404fe8:	89 13                	mov    %edx,(%rbx)
  404fea:	48 83 c4 70          	add    $0x70,%rsp
  404fee:	5b                   	pop    %rbx
  404fef:	c3                   	retq   

0000000000404ff0 <alloc_zero_tailing_info>:
  404ff0:	41 57                	push   %r15
  404ff2:	41 56                	push   %r14
  404ff4:	49 89 fe             	mov    %rdi,%r14
  404ff7:	89 f7                	mov    %esi,%edi
  404ff9:	41 55                	push   %r13
  404ffb:	49 89 ff             	mov    %rdi,%r15
  404ffe:	41 54                	push   %r12
  405000:	55                   	push   %rbp
  405001:	89 d5                	mov    %edx,%ebp
  405003:	53                   	push   %rbx
  405004:	89 cb                	mov    %ecx,%ebx
  405006:	48 83 ec 18          	sub    $0x18,%rsp
  40500a:	89 7c 24 04          	mov    %edi,0x4(%rsp)
  40500e:	48 0f af fd          	imul   %rbp,%rdi
  405012:	e8 c9 d3 ff ff       	callq  4023e0 <malloc@plt>
  405017:	48 89 44 24 08       	mov    %rax,0x8(%rsp)
  40501c:	48 85 c0             	test   %rax,%rax
  40501f:	74 44                	je     405065 <alloc_zero_tailing_info+0x75>
  405021:	45 85 ff             	test   %r15d,%r15d
  405024:	74 3f                	je     405065 <alloc_zero_tailing_info+0x75>
  405026:	49 89 ed             	mov    %rbp,%r13
  405029:	41 89 dc             	mov    %ebx,%r12d
  40502c:	45 31 ff             	xor    %r15d,%r15d
  40502f:	41 29 dd             	sub    %ebx,%r13d
  405032:	48 89 c3             	mov    %rax,%rbx
  405035:	0f 1f 00             	nopl   (%rax)
  405038:	4c 89 f6             	mov    %r14,%rsi
  40503b:	48 89 df             	mov    %rbx,%rdi
  40503e:	4c 89 e2             	mov    %r12,%rdx
  405041:	49 01 ee             	add    %rbp,%r14
  405044:	e8 57 d3 ff ff       	callq  4023a0 <memcpy@plt>
  405049:	4a 8d 3c 23          	lea    (%rbx,%r12,1),%rdi
  40504d:	4c 89 ea             	mov    %r13,%rdx
  405050:	31 f6                	xor    %esi,%esi
  405052:	e8 29 d2 ff ff       	callq  402280 <memset@plt>
  405057:	48 01 eb             	add    %rbp,%rbx
  40505a:	41 83 c7 01          	add    $0x1,%r15d
  40505e:	44 39 7c 24 04       	cmp    %r15d,0x4(%rsp)
  405063:	75 d3                	jne    405038 <alloc_zero_tailing_info+0x48>
  405065:	48 8b 44 24 08       	mov    0x8(%rsp),%rax
  40506a:	48 83 c4 18          	add    $0x18,%rsp
  40506e:	5b                   	pop    %rbx
  40506f:	5d                   	pop    %rbp
  405070:	41 5c                	pop    %r12
  405072:	41 5d                	pop    %r13
  405074:	41 5e                	pop    %r14
  405076:	41 5f                	pop    %r15
  405078:	c3                   	retq   
  405079:	0f 1f 80 00 00 00 00 	nopl   0x0(%rax)

0000000000405080 <bpf_create_map_xattr>:
  405080:	55                   	push   %rbp
  405081:	31 c0                	xor    %eax,%eax
  405083:	b9 0c 00 00 00       	mov    $0xc,%ecx
  405088:	53                   	push   %rbx
  405089:	48 89 fb             	mov    %rdi,%rbx
  40508c:	48 83 ec 78          	sub    $0x78,%rsp
  405090:	48 8b 2b             	mov    (%rbx),%rbp
  405093:	48 8d 54 24 10       	lea    0x10(%rsp),%rdx
  405098:	48 89 d7             	mov    %rdx,%rdi
  40509b:	f3 48 ab             	rep stos %rax,%es:(%rdi)
  40509e:	8b 43 08             	mov    0x8(%rbx),%eax
  4050a1:	89 04 24             	mov    %eax,(%rsp)
  4050a4:	8b 43 10             	mov    0x10(%rbx),%eax
  4050a7:	89 44 24 04          	mov    %eax,0x4(%rsp)
  4050ab:	48 8b 43 14          	mov    0x14(%rbx),%rax
  4050af:	48 89 44 24 08       	mov    %rax,0x8(%rsp)
  4050b4:	8b 43 0c             	mov    0xc(%rbx),%eax
  4050b7:	89 44 24 10          	mov    %eax,0x10(%rsp)
  4050bb:	48 85 ed             	test   %rbp,%rbp
  4050be:	74 67                	je     405127 <bpf_create_map_xattr+0xa7>
  4050c0:	48 89 ef             	mov    %rbp,%rdi
  4050c3:	e8 f8 d0 ff ff       	callq  4021c0 <strlen@plt>
  4050c8:	ba 0f 00 00 00       	mov    $0xf,%edx
  4050cd:	48 8d 4c 24 1c       	lea    0x1c(%rsp),%rcx
  4050d2:	48 83 f8 0f          	cmp    $0xf,%rax
  4050d6:	48 0f 43 c2          	cmovae %rdx,%rax
  4050da:	89 c2                	mov    %eax,%edx
  4050dc:	83 f8 08             	cmp    $0x8,%eax
  4050df:	0f 82 8b 00 00 00    	jb     405170 <bpf_create_map_xattr+0xf0>
  4050e5:	48 8b 55 00          	mov    0x0(%rbp),%rdx
  4050e9:	48 8d 7c 24 20       	lea    0x20(%rsp),%rdi
  4050ee:	48 89 54 24 1c       	mov    %rdx,0x1c(%rsp)
  4050f3:	89 c2                	mov    %eax,%edx
  4050f5:	48 8b 74 15 f8       	mov    -0x8(%rbp,%rdx,1),%rsi
  4050fa:	48 89 74 11 f8       	mov    %rsi,-0x8(%rcx,%rdx,1)
  4050ff:	48 29 f9             	sub    %rdi,%rcx
  405102:	8d 14 08             	lea    (%rax,%rcx,1),%edx
  405105:	48 29 cd             	sub    %rcx,%rbp
  405108:	83 e2 f8             	and    $0xfffffff8,%edx
  40510b:	83 fa 08             	cmp    $0x8,%edx
  40510e:	72 17                	jb     405127 <bpf_create_map_xattr+0xa7>
  405110:	83 e2 f8             	and    $0xfffffff8,%edx
  405113:	31 c0                	xor    %eax,%eax
  405115:	89 c1                	mov    %eax,%ecx
  405117:	83 c0 08             	add    $0x8,%eax
  40511a:	48 8b 74 0d 00       	mov    0x0(%rbp,%rcx,1),%rsi
  40511f:	48 89 34 0f          	mov    %rsi,(%rdi,%rcx,1)
  405123:	39 d0                	cmp    %edx,%eax
  405125:	72 ee                	jb     405115 <bpf_create_map_xattr+0x95>
  405127:	8b 43 1c             	mov    0x1c(%rbx),%eax
  40512a:	48 8b 53 20          	mov    0x20(%rbx),%rdx
  40512e:	b9 70 00 00 00       	mov    $0x70,%ecx
  405133:	31 f6                	xor    %esi,%esi
  405135:	bf 41 01 00 00       	mov    $0x141,%edi
  40513a:	89 44 24 18          	mov    %eax,0x18(%rsp)
  40513e:	8b 43 28             	mov    0x28(%rbx),%eax
  405141:	48 89 54 24 30       	mov    %rdx,0x30(%rsp)
  405146:	48 89 e2             	mov    %rsp,%rdx
  405149:	89 44 24 38          	mov    %eax,0x38(%rsp)
  40514d:	8b 43 2c             	mov    0x2c(%rbx),%eax
  405150:	89 44 24 2c          	mov    %eax,0x2c(%rsp)
  405154:	8b 43 30             	mov    0x30(%rbx),%eax
  405157:	89 44 24 14          	mov    %eax,0x14(%rsp)
  40515b:	31 c0                	xor    %eax,%eax
  40515d:	e8 ee d1 ff ff       	callq  402350 <syscall@plt>
  405162:	48 83 c4 78          	add    $0x78,%rsp
  405166:	5b                   	pop    %rbx
  405167:	5d                   	pop    %rbp
  405168:	c3                   	retq   
  405169:	0f 1f 80 00 00 00 00 	nopl   0x0(%rax)
  405170:	a8 04                	test   $0x4,%al
  405172:	75 24                	jne    405198 <bpf_create_map_xattr+0x118>
  405174:	85 c0                	test   %eax,%eax
  405176:	74 af                	je     405127 <bpf_create_map_xattr+0xa7>
  405178:	0f b6 45 00          	movzbl 0x0(%rbp),%eax
  40517c:	88 01                	mov    %al,(%rcx)
  40517e:	f6 c2 02             	test   $0x2,%dl
  405181:	74 a4                	je     405127 <bpf_create_map_xattr+0xa7>
  405183:	89 d0                	mov    %edx,%eax
  405185:	0f b7 54 05 fe       	movzwl -0x2(%rbp,%rax,1),%edx
  40518a:	66 89 54 01 fe       	mov    %dx,-0x2(%rcx,%rax,1)
  40518f:	eb 96                	jmp    405127 <bpf_create_map_xattr+0xa7>
  405191:	0f 1f 80 00 00 00 00 	nopl   0x0(%rax)
  405198:	8b 45 00             	mov    0x0(%rbp),%eax
  40519b:	89 01                	mov    %eax,(%rcx)
  40519d:	89 d0                	mov    %edx,%eax
  40519f:	8b 54 05 fc          	mov    -0x4(%rbp,%rax,1),%edx
  4051a3:	89 54 01 fc          	mov    %edx,-0x4(%rcx,%rax,1)
  4051a7:	e9 7b ff ff ff       	jmpq   405127 <bpf_create_map_xattr+0xa7>
  4051ac:	0f 1f 40 00          	nopl   0x0(%rax)

00000000004051b0 <bpf_create_map_node>:
  4051b0:	48 83 ec 48          	sub    $0x48,%rsp
  4051b4:	66 0f ef c0          	pxor   %xmm0,%xmm0
  4051b8:	8b 44 24 50          	mov    0x50(%rsp),%eax
  4051bc:	0f 11 44 24 18       	movups %xmm0,0x18(%rsp)
  4051c1:	48 89 34 24          	mov    %rsi,(%rsp)
  4051c5:	89 7c 24 08          	mov    %edi,0x8(%rsp)
  4051c9:	44 89 4c 24 0c       	mov    %r9d,0xc(%rsp)
  4051ce:	89 54 24 10          	mov    %edx,0x10(%rsp)
  4051d2:	89 4c 24 14          	mov    %ecx,0x14(%rsp)
  4051d6:	44 89 44 24 18       	mov    %r8d,0x18(%rsp)
  4051db:	0f 11 44 24 28       	movups %xmm0,0x28(%rsp)
  4051e0:	85 c0                	test   %eax,%eax
  4051e2:	78 0d                	js     4051f1 <bpf_create_map_node+0x41>
  4051e4:	41 83 c9 04          	or     $0x4,%r9d
  4051e8:	89 44 24 1c          	mov    %eax,0x1c(%rsp)
  4051ec:	44 89 4c 24 0c       	mov    %r9d,0xc(%rsp)
  4051f1:	48 89 e7             	mov    %rsp,%rdi
  4051f4:	e8 87 fe ff ff       	callq  405080 <bpf_create_map_xattr>
  4051f9:	48 83 c4 48          	add    $0x48,%rsp
  4051fd:	c3                   	retq   
  4051fe:	66 90                	xchg   %ax,%ax

0000000000405200 <bpf_create_map>:
  405200:	48 83 ec 48          	sub    $0x48,%rsp
  405204:	66 0f ef c0          	pxor   %xmm0,%xmm0
  405208:	0f 29 04 24          	movaps %xmm0,(%rsp)
  40520c:	89 7c 24 08          	mov    %edi,0x8(%rsp)
  405210:	48 89 e7             	mov    %rsp,%rdi
  405213:	0f 29 44 24 10       	movaps %xmm0,0x10(%rsp)
  405218:	48 c7 44 24 30 00 00 	movq   $0x0,0x30(%rsp)
  40521f:	00 00 
  405221:	44 89 44 24 0c       	mov    %r8d,0xc(%rsp)
  405226:	89 74 24 10          	mov    %esi,0x10(%rsp)
  40522a:	89 54 24 14          	mov    %edx,0x14(%rsp)
  40522e:	89 4c 24 18          	mov    %ecx,0x18(%rsp)
  405232:	0f 29 44 24 20       	movaps %xmm0,0x20(%rsp)
  405237:	e8 44 fe ff ff       	callq  405080 <bpf_create_map_xattr>
  40523c:	48 83 c4 48          	add    $0x48,%rsp
  405240:	c3                   	retq   
  405241:	66 66 2e 0f 1f 84 00 	data16 nopw %cs:0x0(%rax,%rax,1)
  405248:	00 00 00 00 
  40524c:	0f 1f 40 00          	nopl   0x0(%rax)

0000000000405250 <bpf_create_map_name>:
  405250:	48 83 ec 48          	sub    $0x48,%rsp
  405254:	66 0f ef c0          	pxor   %xmm0,%xmm0
  405258:	89 7c 24 08          	mov    %edi,0x8(%rsp)
  40525c:	48 89 e7             	mov    %rsp,%rdi
  40525f:	0f 11 44 24 18       	movups %xmm0,0x18(%rsp)
  405264:	48 89 34 24          	mov    %rsi,(%rsp)
  405268:	44 89 4c 24 0c       	mov    %r9d,0xc(%rsp)
  40526d:	89 54 24 10          	mov    %edx,0x10(%rsp)
  405271:	89 4c 24 14          	mov    %ecx,0x14(%rsp)
  405275:	44 89 44 24 18       	mov    %r8d,0x18(%rsp)
  40527a:	0f 11 44 24 28       	movups %xmm0,0x28(%rsp)
  40527f:	e8 fc fd ff ff       	callq  405080 <bpf_create_map_xattr>
  405284:	48 83 c4 48          	add    $0x48,%rsp
  405288:	c3                   	retq   
  405289:	0f 1f 80 00 00 00 00 	nopl   0x0(%rax)

0000000000405290 <bpf_create_map_in_map_node>:
  405290:	41 55                	push   %r13
  405292:	41 89 d5             	mov    %edx,%r13d
  405295:	41 89 fb             	mov    %edi,%r11d
  405298:	41 89 ca             	mov    %ecx,%r10d
  40529b:	41 54                	push   %r12
  40529d:	b9 0b 00 00 00       	mov    $0xb,%ecx
  4052a2:	31 c0                	xor    %eax,%eax
  4052a4:	55                   	push   %rbp
  4052a5:	44 89 cd             	mov    %r9d,%ebp
  4052a8:	53                   	push   %rbx
  4052a9:	48 83 ec 78          	sub    $0x78,%rsp
  4052ad:	48 8d 54 24 18       	lea    0x18(%rsp),%rdx
  4052b2:	44 89 1c 24          	mov    %r11d,(%rsp)
  4052b6:	44 8b a4 24 a0 00 00 	mov    0xa0(%rsp),%r12d
  4052bd:	00 
  4052be:	48 89 d7             	mov    %rdx,%rdi
  4052c1:	44 89 6c 24 04       	mov    %r13d,0x4(%rsp)
  4052c6:	f3 48 ab             	rep stos %rax,%es:(%rdi)
  4052c9:	c7 44 24 08 04 00 00 	movl   $0x4,0x8(%rsp)
  4052d0:	00 
  4052d1:	44 89 54 24 14       	mov    %r10d,0x14(%rsp)
  4052d6:	44 89 44 24 0c       	mov    %r8d,0xc(%rsp)
  4052db:	44 89 4c 24 10       	mov    %r9d,0x10(%rsp)
  4052e0:	48 85 f6             	test   %rsi,%rsi
  4052e3:	74 6b                	je     405350 <bpf_create_map_in_map_node+0xc0>
  4052e5:	48 89 f7             	mov    %rsi,%rdi
  4052e8:	48 89 f3             	mov    %rsi,%rbx
  4052eb:	e8 d0 ce ff ff       	callq  4021c0 <strlen@plt>
  4052f0:	ba 0f 00 00 00       	mov    $0xf,%edx
  4052f5:	48 8d 4c 24 1c       	lea    0x1c(%rsp),%rcx
  4052fa:	48 83 f8 0f          	cmp    $0xf,%rax
  4052fe:	48 0f 43 c2          	cmovae %rdx,%rax
  405302:	89 c2                	mov    %eax,%edx
  405304:	83 f8 08             	cmp    $0x8,%eax
  405307:	72 7f                	jb     405388 <bpf_create_map_in_map_node+0xf8>
  405309:	48 8b 13             	mov    (%rbx),%rdx
  40530c:	48 8d 7c 24 20       	lea    0x20(%rsp),%rdi
  405311:	48 89 54 24 1c       	mov    %rdx,0x1c(%rsp)
  405316:	89 c2                	mov    %eax,%edx
  405318:	48 8b 74 13 f8       	mov    -0x8(%rbx,%rdx,1),%rsi
  40531d:	48 89 74 11 f8       	mov    %rsi,-0x8(%rcx,%rdx,1)
  405322:	48 29 f9             	sub    %rdi,%rcx
  405325:	8d 14 08             	lea    (%rax,%rcx,1),%edx
  405328:	48 29 cb             	sub    %rcx,%rbx
  40532b:	83 e2 f8             	and    $0xfffffff8,%edx
  40532e:	83 fa 08             	cmp    $0x8,%edx
  405331:	72 1d                	jb     405350 <bpf_create_map_in_map_node+0xc0>
  405333:	83 e2 f8             	and    $0xfffffff8,%edx
  405336:	31 c0                	xor    %eax,%eax
  405338:	89 c1                	mov    %eax,%ecx
  40533a:	83 c0 08             	add    $0x8,%eax
  40533d:	48 8b 34 0b          	mov    (%rbx,%rcx,1),%rsi
  405341:	48 89 34 0f          	mov    %rsi,(%rdi,%rcx,1)
  405345:	39 d0                	cmp    %edx,%eax
  405347:	72 ef                	jb     405338 <bpf_create_map_in_map_node+0xa8>
  405349:	0f 1f 80 00 00 00 00 	nopl   0x0(%rax)
  405350:	45 85 e4             	test   %r12d,%r12d
  405353:	78 0c                	js     405361 <bpf_create_map_in_map_node+0xd1>
  405355:	83 cd 04             	or     $0x4,%ebp
  405358:	44 89 64 24 18       	mov    %r12d,0x18(%rsp)
  40535d:	89 6c 24 10          	mov    %ebp,0x10(%rsp)
  405361:	48 89 e2             	mov    %rsp,%rdx
  405364:	b9 70 00 00 00       	mov    $0x70,%ecx
  405369:	31 f6                	xor    %esi,%esi
  40536b:	bf 41 01 00 00       	mov    $0x141,%edi
  405370:	31 c0                	xor    %eax,%eax
  405372:	e8 d9 cf ff ff       	callq  402350 <syscall@plt>
  405377:	48 83 c4 78          	add    $0x78,%rsp
  40537b:	5b                   	pop    %rbx
  40537c:	5d                   	pop    %rbp
  40537d:	41 5c                	pop    %r12
  40537f:	41 5d                	pop    %r13
  405381:	c3                   	retq   
  405382:	66 0f 1f 44 00 00    	nopw   0x0(%rax,%rax,1)
  405388:	a8 04                	test   $0x4,%al
  40538a:	75 24                	jne    4053b0 <bpf_create_map_in_map_node+0x120>
  40538c:	85 c0                	test   %eax,%eax
  40538e:	74 c0                	je     405350 <bpf_create_map_in_map_node+0xc0>
  405390:	0f b6 03             	movzbl (%rbx),%eax
  405393:	88 01                	mov    %al,(%rcx)
  405395:	f6 c2 02             	test   $0x2,%dl
  405398:	74 b6                	je     405350 <bpf_create_map_in_map_node+0xc0>
  40539a:	89 d0                	mov    %edx,%eax
  40539c:	0f b7 54 03 fe       	movzwl -0x2(%rbx,%rax,1),%edx
  4053a1:	66 89 54 01 fe       	mov    %dx,-0x2(%rcx,%rax,1)
  4053a6:	eb a8                	jmp    405350 <bpf_create_map_in_map_node+0xc0>
  4053a8:	0f 1f 84 00 00 00 00 	nopl   0x0(%rax,%rax,1)
  4053af:	00 
  4053b0:	8b 03                	mov    (%rbx),%eax
  4053b2:	89 01                	mov    %eax,(%rcx)
  4053b4:	89 d0                	mov    %edx,%eax
  4053b6:	8b 54 03 fc          	mov    -0x4(%rbx,%rax,1),%edx
  4053ba:	89 54 01 fc          	mov    %edx,-0x4(%rcx,%rax,1)
  4053be:	eb 90                	jmp    405350 <bpf_create_map_in_map_node+0xc0>

00000000004053c0 <bpf_create_map_in_map>:
  4053c0:	48 83 ec 10          	sub    $0x10,%rsp
  4053c4:	6a ff                	pushq  $0xffffffffffffffff
  4053c6:	e8 c5 fe ff ff       	callq  405290 <bpf_create_map_in_map_node>
  4053cb:	48 83 c4 18          	add    $0x18,%rsp
  4053cf:	c3                   	retq   

00000000004053d0 <bpf_load_program_xattr>:
  4053d0:	41 57                	push   %r15
  4053d2:	41 56                	push   %r14
  4053d4:	41 55                	push   %r13
  4053d6:	41 54                	push   %r12
  4053d8:	55                   	push   %rbp
  4053d9:	53                   	push   %rbx
  4053da:	48 81 ec 98 00 00 00 	sub    $0x98,%rsp
  4053e1:	48 89 74 24 10       	mov    %rsi,0x10(%rsp)
  4053e6:	48 89 54 24 18       	mov    %rdx,0x18(%rsp)
  4053eb:	48 85 ff             	test   %rdi,%rdi
  4053ee:	0f 84 3c 03 00 00    	je     405730 <bpf_load_program_xattr+0x360>
  4053f4:	48 85 f6             	test   %rsi,%rsi
  4053f7:	0f 94 44 24 0e       	sete   0xe(%rsp)
  4053fc:	48 85 d2             	test   %rdx,%rdx
  4053ff:	0f b6 5c 24 0e       	movzbl 0xe(%rsp),%ebx
  405404:	0f 94 c0             	sete   %al
  405407:	38 c3                	cmp    %al,%bl
  405409:	0f 85 21 03 00 00    	jne    405730 <bpf_load_program_xattr+0x360>
  40540f:	8b 57 54             	mov    0x54(%rdi),%edx
  405412:	49 89 ff             	mov    %rdi,%r15
  405415:	83 fa 07             	cmp    $0x7,%edx
  405418:	0f 87 12 03 00 00    	ja     405730 <bpf_load_program_xattr+0x360>
  40541e:	85 d2                	test   %edx,%edx
  405420:	0f 95 44 24 0f       	setne  0xf(%rsp)
  405425:	0f b6 44 24 0f       	movzbl 0xf(%rsp),%eax
  40542a:	84 db                	test   %bl,%bl
  40542c:	74 08                	je     405436 <bpf_load_program_xattr+0x66>
  40542e:	84 c0                	test   %al,%al
  405430:	0f 85 fa 02 00 00    	jne    405730 <bpf_load_program_xattr+0x360>
  405436:	48 8d 6c 24 20       	lea    0x20(%rsp),%rbp
  40543b:	31 c0                	xor    %eax,%eax
  40543d:	b9 0e 00 00 00       	mov    $0xe,%ecx
  405442:	48 89 ef             	mov    %rbp,%rdi
  405445:	f3 48 ab             	rep stos %rax,%es:(%rdi)
  405448:	41 8b 4f 04          	mov    0x4(%r15),%ecx
  40544c:	41 8b 07             	mov    (%r15),%eax
  40544f:	89 4c 24 64          	mov    %ecx,0x64(%rsp)
  405453:	41 8b 4f 2c          	mov    0x2c(%r15),%ecx
  405457:	89 44 24 20          	mov    %eax,0x20(%rsp)
  40545b:	83 f8 1a             	cmp    $0x1a,%eax
  40545e:	0f 84 8c 02 00 00    	je     4056f0 <bpf_load_program_xattr+0x320>
  405464:	89 4c 24 60          	mov    %ecx,0x60(%rsp)
  405468:	49 8b 47 18          	mov    0x18(%r15),%rax
  40546c:	89 54 24 38          	mov    %edx,0x38(%rsp)
  405470:	89 44 24 24          	mov    %eax,0x24(%rsp)
  405474:	49 8b 47 10          	mov    0x10(%r15),%rax
  405478:	48 89 44 24 28       	mov    %rax,0x28(%rsp)
  40547d:	49 8b 47 20          	mov    0x20(%r15),%rax
  405481:	48 89 44 24 30       	mov    %rax,0x30(%rsp)
  405486:	85 d2                	test   %edx,%edx
  405488:	0f 85 02 01 00 00    	jne    405590 <bpf_load_program_xattr+0x1c0>
  40548e:	48 c7 44 24 40 00 00 	movq   $0x0,0x40(%rsp)
  405495:	00 00 
  405497:	c7 44 24 3c 00 00 00 	movl   $0x0,0x3c(%rsp)
  40549e:	00 
  40549f:	41 8b 47 28          	mov    0x28(%r15),%eax
  4054a3:	49 8b 5f 08          	mov    0x8(%r15),%rbx
  4054a7:	89 44 24 48          	mov    %eax,0x48(%rsp)
  4054ab:	49 8b 47 30          	mov    0x30(%r15),%rax
  4054af:	48 89 44 24 68       	mov    %rax,0x68(%rsp)
  4054b4:	49 8b 47 38          	mov    0x38(%r15),%rax
  4054b8:	48 89 44 24 70       	mov    %rax,0x70(%rsp)
  4054bd:	49 8b 47 40          	mov    0x40(%r15),%rax
  4054c1:	48 89 44 24 78       	mov    %rax,0x78(%rsp)
  4054c6:	41 8b 47 50          	mov    0x50(%r15),%eax
  4054ca:	89 84 24 88 00 00 00 	mov    %eax,0x88(%rsp)
  4054d1:	49 8b 47 48          	mov    0x48(%r15),%rax
  4054d5:	48 89 84 24 80 00 00 	mov    %rax,0x80(%rsp)
  4054dc:	00 
  4054dd:	48 85 db             	test   %rbx,%rbx
  4054e0:	74 57                	je     405539 <bpf_load_program_xattr+0x169>
  4054e2:	48 89 df             	mov    %rbx,%rdi
  4054e5:	e8 d6 cc ff ff       	callq  4021c0 <strlen@plt>
  4054ea:	ba 0f 00 00 00       	mov    $0xf,%edx
  4054ef:	48 8d 4c 24 50       	lea    0x50(%rsp),%rcx
  4054f4:	48 83 f8 0f          	cmp    $0xf,%rax
  4054f8:	48 0f 43 c2          	cmovae %rdx,%rax
  4054fc:	48 89 da             	mov    %rbx,%rdx
  4054ff:	89 c6                	mov    %eax,%esi
  405501:	83 f8 08             	cmp    $0x8,%eax
  405504:	0f 83 f6 01 00 00    	jae    405700 <bpf_load_program_xattr+0x330>
  40550a:	31 c0                	xor    %eax,%eax
  40550c:	40 f6 c6 04          	test   $0x4,%sil
  405510:	74 09                	je     40551b <bpf_load_program_xattr+0x14b>
  405512:	8b 02                	mov    (%rdx),%eax
  405514:	89 01                	mov    %eax,(%rcx)
  405516:	b8 04 00 00 00       	mov    $0x4,%eax
  40551b:	40 f6 c6 02          	test   $0x2,%sil
  40551f:	74 0c                	je     40552d <bpf_load_program_xattr+0x15d>
  405521:	0f b7 3c 02          	movzwl (%rdx,%rax,1),%edi
  405525:	66 89 3c 01          	mov    %di,(%rcx,%rax,1)
  405529:	48 83 c0 02          	add    $0x2,%rax
  40552d:	83 e6 01             	and    $0x1,%esi
  405530:	74 07                	je     405539 <bpf_load_program_xattr+0x169>
  405532:	0f b6 14 02          	movzbl (%rdx,%rax,1),%edx
  405536:	88 14 01             	mov    %dl,(%rcx,%rax,1)
  405539:	41 8b 47 58          	mov    0x58(%r15),%eax
  40553d:	89 44 24 4c          	mov    %eax,0x4c(%rsp)
  405541:	eb 14                	jmp    405557 <bpf_load_program_xattr+0x187>
  405543:	0f 1f 44 00 00       	nopl   0x0(%rax,%rax,1)
  405548:	e8 43 cb ff ff       	callq  402090 <__errno_location@plt>
  40554d:	48 89 c3             	mov    %rax,%rbx
  405550:	8b 00                	mov    (%rax),%eax
  405552:	83 f8 0b             	cmp    $0xb,%eax
  405555:	75 59                	jne    4055b0 <bpf_load_program_xattr+0x1e0>
  405557:	b9 70 00 00 00       	mov    $0x70,%ecx
  40555c:	48 89 ea             	mov    %rbp,%rdx
  40555f:	be 05 00 00 00       	mov    $0x5,%esi
  405564:	31 c0                	xor    %eax,%eax
  405566:	bf 41 01 00 00       	mov    $0x141,%edi
  40556b:	e8 e0 cd ff ff       	callq  402350 <syscall@plt>
  405570:	41 89 c4             	mov    %eax,%r12d
  405573:	85 c0                	test   %eax,%eax
  405575:	78 d1                	js     405548 <bpf_load_program_xattr+0x178>
  405577:	48 81 c4 98 00 00 00 	add    $0x98,%rsp
  40557e:	44 89 e0             	mov    %r12d,%eax
  405581:	5b                   	pop    %rbx
  405582:	5d                   	pop    %rbp
  405583:	41 5c                	pop    %r12
  405585:	41 5d                	pop    %r13
  405587:	41 5e                	pop    %r14
  405589:	41 5f                	pop    %r15
  40558b:	c3                   	retq   
  40558c:	0f 1f 40 00          	nopl   0x0(%rax)
  405590:	48 8b 44 24 10       	mov    0x10(%rsp),%rax
  405595:	48 89 44 24 40       	mov    %rax,0x40(%rsp)
  40559a:	8b 44 24 18          	mov    0x18(%rsp),%eax
  40559e:	89 44 24 3c          	mov    %eax,0x3c(%rsp)
  4055a2:	e9 f8 fe ff ff       	jmpq   40549f <bpf_load_program_xattr+0xcf>
  4055a7:	66 0f 1f 84 00 00 00 	nopw   0x0(%rax,%rax,1)
  4055ae:	00 00 
  4055b0:	45 31 f6             	xor    %r14d,%r14d
  4055b3:	45 31 ed             	xor    %r13d,%r13d
  4055b6:	83 f8 07             	cmp    $0x7,%eax
  4055b9:	0f 85 cc 00 00 00    	jne    40568b <bpf_load_program_xattr+0x2bb>
  4055bf:	4d 85 ed             	test   %r13,%r13
  4055c2:	0f 85 a8 00 00 00    	jne    405670 <bpf_load_program_xattr+0x2a0>
  4055c8:	8b 54 24 78          	mov    0x78(%rsp),%edx
  4055cc:	85 d2                	test   %edx,%edx
  4055ce:	74 10                	je     4055e0 <bpf_load_program_xattr+0x210>
  4055d0:	8b 4c 24 6c          	mov    0x6c(%rsp),%ecx
  4055d4:	41 8b 57 34          	mov    0x34(%r15),%edx
  4055d8:	39 d1                	cmp    %edx,%ecx
  4055da:	0f 82 60 01 00 00    	jb     405740 <bpf_load_program_xattr+0x370>
  4055e0:	4d 85 f6             	test   %r14,%r14
  4055e3:	0f 85 a2 00 00 00    	jne    40568b <bpf_load_program_xattr+0x2bb>
  4055e9:	8b 84 24 88 00 00 00 	mov    0x88(%rsp),%eax
  4055f0:	85 c0                	test   %eax,%eax
  4055f2:	0f 84 90 00 00 00    	je     405688 <bpf_load_program_xattr+0x2b8>
  4055f8:	8b 4c 24 7c          	mov    0x7c(%rsp),%ecx
  4055fc:	41 8b 57 44          	mov    0x44(%r15),%edx
  405600:	39 d1                	cmp    %edx,%ecx
  405602:	0f 83 80 00 00 00    	jae    405688 <bpf_load_program_xattr+0x2b8>
  405608:	41 8b 77 50          	mov    0x50(%r15),%esi
  40560c:	49 8b 7f 48          	mov    0x48(%r15),%rdi
  405610:	e8 db f9 ff ff       	callq  404ff0 <alloc_zero_tailing_info>
  405615:	49 89 c6             	mov    %rax,%r14
  405618:	48 85 c0             	test   %rax,%rax
  40561b:	74 3e                	je     40565b <bpf_load_program_xattr+0x28b>
  40561d:	48 89 84 24 80 00 00 	mov    %rax,0x80(%rsp)
  405624:	00 
  405625:	41 8b 47 44          	mov    0x44(%r15),%eax
  405629:	89 44 24 7c          	mov    %eax,0x7c(%rsp)
  40562d:	eb 0c                	jmp    40563b <bpf_load_program_xattr+0x26b>
  40562f:	90                   	nop
  405630:	8b 03                	mov    (%rbx),%eax
  405632:	83 f8 0b             	cmp    $0xb,%eax
  405635:	0f 85 7b ff ff ff    	jne    4055b6 <bpf_load_program_xattr+0x1e6>
  40563b:	b9 70 00 00 00       	mov    $0x70,%ecx
  405640:	48 89 ea             	mov    %rbp,%rdx
  405643:	be 05 00 00 00       	mov    $0x5,%esi
  405648:	31 c0                	xor    %eax,%eax
  40564a:	bf 41 01 00 00       	mov    $0x141,%edi
  40564f:	e8 fc cc ff ff       	callq  402350 <syscall@plt>
  405654:	41 89 c4             	mov    %eax,%r12d
  405657:	85 c0                	test   %eax,%eax
  405659:	78 d5                	js     405630 <bpf_load_program_xattr+0x260>
  40565b:	4c 89 ef             	mov    %r13,%rdi
  40565e:	e8 dd c9 ff ff       	callq  402040 <free@plt>
  405663:	4c 89 f7             	mov    %r14,%rdi
  405666:	e8 d5 c9 ff ff       	callq  402040 <free@plt>
  40566b:	e9 07 ff ff ff       	jmpq   405577 <bpf_load_program_xattr+0x1a7>
  405670:	4d 85 f6             	test   %r14,%r14
  405673:	75 16                	jne    40568b <bpf_load_program_xattr+0x2bb>
  405675:	4d 85 ed             	test   %r13,%r13
  405678:	0f 85 6b ff ff ff    	jne    4055e9 <bpf_load_program_xattr+0x219>
  40567e:	e9 45 ff ff ff       	jmpq   4055c8 <bpf_load_program_xattr+0x1f8>
  405683:	0f 1f 44 00 00       	nopl   0x0(%rax,%rax,1)
  405688:	45 31 f6             	xor    %r14d,%r14d
  40568b:	80 7c 24 0e 00       	cmpb   $0x0,0xe(%rsp)
  405690:	75 c9                	jne    40565b <bpf_load_program_xattr+0x28b>
  405692:	80 7c 24 0f 00       	cmpb   $0x0,0xf(%rsp)
  405697:	75 c2                	jne    40565b <bpf_load_program_xattr+0x28b>
  405699:	48 8b 44 24 10       	mov    0x10(%rsp),%rax
  40569e:	8b 7c 24 18          	mov    0x18(%rsp),%edi
  4056a2:	c7 44 24 38 01 00 00 	movl   $0x1,0x38(%rsp)
  4056a9:	00 
  4056aa:	48 89 44 24 40       	mov    %rax,0x40(%rsp)
  4056af:	89 7c 24 3c          	mov    %edi,0x3c(%rsp)
  4056b3:	c6 00 00             	movb   $0x0,(%rax)
  4056b6:	eb 0d                	jmp    4056c5 <bpf_load_program_xattr+0x2f5>
  4056b8:	0f 1f 84 00 00 00 00 	nopl   0x0(%rax,%rax,1)
  4056bf:	00 
  4056c0:	83 3b 0b             	cmpl   $0xb,(%rbx)
  4056c3:	75 96                	jne    40565b <bpf_load_program_xattr+0x28b>
  4056c5:	b9 70 00 00 00       	mov    $0x70,%ecx
  4056ca:	48 89 ea             	mov    %rbp,%rdx
  4056cd:	be 05 00 00 00       	mov    $0x5,%esi
  4056d2:	31 c0                	xor    %eax,%eax
  4056d4:	bf 41 01 00 00       	mov    $0x141,%edi
  4056d9:	e8 72 cc ff ff       	callq  402350 <syscall@plt>
  4056de:	41 89 c4             	mov    %eax,%r12d
  4056e1:	85 c0                	test   %eax,%eax
  4056e3:	78 db                	js     4056c0 <bpf_load_program_xattr+0x2f0>
  4056e5:	e9 71 ff ff ff       	jmpq   40565b <bpf_load_program_xattr+0x28b>
  4056ea:	66 0f 1f 44 00 00    	nopw   0x0(%rax,%rax,1)
  4056f0:	89 8c 24 8c 00 00 00 	mov    %ecx,0x8c(%rsp)
  4056f7:	e9 6c fd ff ff       	jmpq   405468 <bpf_load_program_xattr+0x98>
  4056fc:	0f 1f 40 00          	nopl   0x0(%rax)
  405700:	83 e0 f8             	and    $0xfffffff8,%eax
  405703:	31 d2                	xor    %edx,%edx
  405705:	89 d1                	mov    %edx,%ecx
  405707:	83 c2 08             	add    $0x8,%edx
  40570a:	48 8b 3c 0b          	mov    (%rbx,%rcx,1),%rdi
  40570e:	48 89 7c 0c 50       	mov    %rdi,0x50(%rsp,%rcx,1)
  405713:	39 c2                	cmp    %eax,%edx
  405715:	72 ee                	jb     405705 <bpf_load_program_xattr+0x335>
  405717:	48 8d 44 24 50       	lea    0x50(%rsp),%rax
  40571c:	48 8d 0c 10          	lea    (%rax,%rdx,1),%rcx
  405720:	48 01 da             	add    %rbx,%rdx
  405723:	e9 e2 fd ff ff       	jmpq   40550a <bpf_load_program_xattr+0x13a>
  405728:	0f 1f 84 00 00 00 00 	nopl   0x0(%rax,%rax,1)
  40572f:	00 
  405730:	41 bc ea ff ff ff    	mov    $0xffffffea,%r12d
  405736:	e9 3c fe ff ff       	jmpq   405577 <bpf_load_program_xattr+0x1a7>
  40573b:	0f 1f 44 00 00       	nopl   0x0(%rax,%rax,1)
  405740:	41 8b 77 40          	mov    0x40(%r15),%esi
  405744:	49 8b 7f 38          	mov    0x38(%r15),%rdi
  405748:	e8 a3 f8 ff ff       	callq  404ff0 <alloc_zero_tailing_info>
  40574d:	49 89 c5             	mov    %rax,%r13
  405750:	48 85 c0             	test   %rax,%rax
  405753:	0f 84 02 ff ff ff    	je     40565b <bpf_load_program_xattr+0x28b>
  405759:	48 89 44 24 70       	mov    %rax,0x70(%rsp)
  40575e:	41 8b 47 34          	mov    0x34(%r15),%eax
  405762:	89 44 24 6c          	mov    %eax,0x6c(%rsp)
  405766:	e9 d0 fe ff ff       	jmpq   40563b <bpf_load_program_xattr+0x26b>
  40576b:	0f 1f 44 00 00       	nopl   0x0(%rax,%rax,1)

0000000000405770 <bpf_load_program>:
  405770:	48 83 ec 68          	sub    $0x68,%rsp
  405774:	66 0f ef c0          	pxor   %xmm0,%xmm0
  405778:	49 89 f2             	mov    %rsi,%r10
  40577b:	4c 89 ce             	mov    %r9,%rsi
  40577e:	48 89 54 24 18       	mov    %rdx,0x18(%rsp)
  405783:	48 8b 54 24 70       	mov    0x70(%rsp),%rdx
  405788:	89 3c 24             	mov    %edi,(%rsp)
  40578b:	48 89 e7             	mov    %rsp,%rdi
  40578e:	0f 11 44 24 28       	movups %xmm0,0x28(%rsp)
  405793:	48 c7 44 24 58 00 00 	movq   $0x0,0x58(%rsp)
  40579a:	00 00 
  40579c:	c7 44 24 04 00 00 00 	movl   $0x0,0x4(%rsp)
  4057a3:	00 
  4057a4:	48 c7 44 24 08 00 00 	movq   $0x0,0x8(%rsp)
  4057ab:	00 00 
  4057ad:	4c 89 54 24 10       	mov    %r10,0x10(%rsp)
  4057b2:	48 89 4c 24 20       	mov    %rcx,0x20(%rsp)
  4057b7:	44 89 44 24 28       	mov    %r8d,0x28(%rsp)
  4057bc:	0f 11 44 24 38       	movups %xmm0,0x38(%rsp)
  4057c1:	0f 11 44 24 48       	movups %xmm0,0x48(%rsp)
  4057c6:	e8 05 fc ff ff       	callq  4053d0 <bpf_load_program_xattr>
  4057cb:	48 83 c4 68          	add    $0x68,%rsp
  4057cf:	c3                   	retq   

00000000004057d0 <bpf_verify_program>:
  4057d0:	41 54                	push   %r12
  4057d2:	66 0f ef c0          	pxor   %xmm0,%xmm0
  4057d6:	48 83 ec 70          	sub    $0x70,%rsp
  4057da:	89 54 24 04          	mov    %edx,0x4(%rsp)
  4057de:	48 8b 94 24 88 00 00 	mov    0x88(%rsp),%rdx
  4057e5:	00 
  4057e6:	48 8b 84 24 80 00 00 	mov    0x80(%rsp),%rax
  4057ed:	00 
  4057ee:	89 3c 24             	mov    %edi,(%rsp)
  4057f1:	89 54 24 1c          	mov    %edx,0x1c(%rsp)
  4057f5:	8b 94 24 90 00 00 00 	mov    0x90(%rsp),%edx
  4057fc:	48 89 74 24 08       	mov    %rsi,0x8(%rsp)
  405801:	4c 89 44 24 10       	mov    %r8,0x10(%rsp)
  405806:	48 89 44 24 20       	mov    %rax,0x20(%rsp)
  40580b:	89 54 24 18          	mov    %edx,0x18(%rsp)
  40580f:	c6 00 00             	movb   $0x0,(%rax)
  405812:	44 89 4c 24 28       	mov    %r9d,0x28(%rsp)
  405817:	89 4c 24 2c          	mov    %ecx,0x2c(%rsp)
  40581b:	0f 29 44 24 30       	movaps %xmm0,0x30(%rsp)
  405820:	0f 29 44 24 40       	movaps %xmm0,0x40(%rsp)
  405825:	0f 29 44 24 50       	movaps %xmm0,0x50(%rsp)
  40582a:	0f 29 44 24 60       	movaps %xmm0,0x60(%rsp)
  40582f:	eb 11                	jmp    405842 <bpf_verify_program+0x72>
  405831:	0f 1f 80 00 00 00 00 	nopl   0x0(%rax)
  405838:	e8 53 c8 ff ff       	callq  402090 <__errno_location@plt>
  40583d:	83 38 0b             	cmpl   $0xb,(%rax)
  405840:	75 20                	jne    405862 <bpf_verify_program+0x92>
  405842:	b9 70 00 00 00       	mov    $0x70,%ecx
  405847:	48 89 e2             	mov    %rsp,%rdx
  40584a:	be 05 00 00 00       	mov    $0x5,%esi
  40584f:	31 c0                	xor    %eax,%eax
  405851:	bf 41 01 00 00       	mov    $0x141,%edi
  405856:	e8 f5 ca ff ff       	callq  402350 <syscall@plt>
  40585b:	41 89 c4             	mov    %eax,%r12d
  40585e:	85 c0                	test   %eax,%eax
  405860:	78 d6                	js     405838 <bpf_verify_program+0x68>
  405862:	48 83 c4 70          	add    $0x70,%rsp
  405866:	44 89 e0             	mov    %r12d,%eax
  405869:	41 5c                	pop    %r12
  40586b:	c3                   	retq   
  40586c:	0f 1f 40 00          	nopl   0x0(%rax)

0000000000405870 <bpf_map_update_elem>:
  405870:	48 83 ec 78          	sub    $0x78,%rsp
  405874:	49 89 d1             	mov    %rdx,%r9
  405877:	41 89 fa             	mov    %edi,%r10d
  40587a:	49 89 c8             	mov    %rcx,%r8
  40587d:	48 89 e2             	mov    %rsp,%rdx
  405880:	31 c0                	xor    %eax,%eax
  405882:	b9 0e 00 00 00       	mov    $0xe,%ecx
  405887:	48 89 d7             	mov    %rdx,%rdi
  40588a:	f3 48 ab             	rep stos %rax,%es:(%rdi)
  40588d:	48 89 74 24 08       	mov    %rsi,0x8(%rsp)
  405892:	b9 70 00 00 00       	mov    $0x70,%ecx
  405897:	be 02 00 00 00       	mov    $0x2,%esi
  40589c:	bf 41 01 00 00       	mov    $0x141,%edi
  4058a1:	44 89 14 24          	mov    %r10d,(%rsp)
  4058a5:	4c 89 4c 24 10       	mov    %r9,0x10(%rsp)
  4058aa:	4c 89 44 24 18       	mov    %r8,0x18(%rsp)
  4058af:	e8 9c ca ff ff       	callq  402350 <syscall@plt>
  4058b4:	48 83 c4 78          	add    $0x78,%rsp
  4058b8:	c3                   	retq   
  4058b9:	0f 1f 80 00 00 00 00 	nopl   0x0(%rax)

00000000004058c0 <bpf_map_lookup_elem>:
  4058c0:	48 83 ec 78          	sub    $0x78,%rsp
  4058c4:	49 89 d0             	mov    %rdx,%r8
  4058c7:	41 89 f9             	mov    %edi,%r9d
  4058ca:	31 c0                	xor    %eax,%eax
  4058cc:	48 89 e2             	mov    %rsp,%rdx
  4058cf:	b9 0e 00 00 00       	mov    $0xe,%ecx
  4058d4:	48 89 d7             	mov    %rdx,%rdi
  4058d7:	f3 48 ab             	rep stos %rax,%es:(%rdi)
  4058da:	48 89 74 24 08       	mov    %rsi,0x8(%rsp)
  4058df:	b9 70 00 00 00       	mov    $0x70,%ecx
  4058e4:	be 01 00 00 00       	mov    $0x1,%esi
  4058e9:	bf 41 01 00 00       	mov    $0x141,%edi
  4058ee:	44 89 0c 24          	mov    %r9d,(%rsp)
  4058f2:	4c 89 44 24 10       	mov    %r8,0x10(%rsp)
  4058f7:	e8 54 ca ff ff       	callq  402350 <syscall@plt>
  4058fc:	48 83 c4 78          	add    $0x78,%rsp
  405900:	c3                   	retq   
  405901:	66 66 2e 0f 1f 84 00 	data16 nopw %cs:0x0(%rax,%rax,1)
  405908:	00 00 00 00 
  40590c:	0f 1f 40 00          	nopl   0x0(%rax)

0000000000405910 <bpf_map_lookup_elem_flags>:
  405910:	48 83 ec 78          	sub    $0x78,%rsp
  405914:	49 89 d1             	mov    %rdx,%r9
  405917:	41 89 fa             	mov    %edi,%r10d
  40591a:	49 89 c8             	mov    %rcx,%r8
  40591d:	48 89 e2             	mov    %rsp,%rdx
  405920:	31 c0                	xor    %eax,%eax
  405922:	b9 0e 00 00 00       	mov    $0xe,%ecx
  405927:	48 89 d7             	mov    %rdx,%rdi
  40592a:	f3 48 ab             	rep stos %rax,%es:(%rdi)
  40592d:	48 89 74 24 08       	mov    %rsi,0x8(%rsp)
  405932:	b9 70 00 00 00       	mov    $0x70,%ecx
  405937:	be 01 00 00 00       	mov    $0x1,%esi
  40593c:	bf 41 01 00 00       	mov    $0x141,%edi
  405941:	44 89 14 24          	mov    %r10d,(%rsp)
  405945:	4c 89 4c 24 10       	mov    %r9,0x10(%rsp)
  40594a:	4c 89 44 24 18       	mov    %r8,0x18(%rsp)
  40594f:	e8 fc c9 ff ff       	callq  402350 <syscall@plt>
  405954:	48 83 c4 78          	add    $0x78,%rsp
  405958:	c3                   	retq   
  405959:	0f 1f 80 00 00 00 00 	nopl   0x0(%rax)

0000000000405960 <bpf_map_lookup_and_delete_elem>:
  405960:	48 83 ec 78          	sub    $0x78,%rsp
  405964:	49 89 d0             	mov    %rdx,%r8
  405967:	41 89 f9             	mov    %edi,%r9d
  40596a:	31 c0                	xor    %eax,%eax
  40596c:	48 89 e2             	mov    %rsp,%rdx
  40596f:	b9 0e 00 00 00       	mov    $0xe,%ecx
  405974:	48 89 d7             	mov    %rdx,%rdi
  405977:	f3 48 ab             	rep stos %rax,%es:(%rdi)
  40597a:	48 89 74 24 08       	mov    %rsi,0x8(%rsp)
  40597f:	b9 70 00 00 00       	mov    $0x70,%ecx
  405984:	be 15 00 00 00       	mov    $0x15,%esi
  405989:	bf 41 01 00 00       	mov    $0x141,%edi
  40598e:	44 89 0c 24          	mov    %r9d,(%rsp)
  405992:	4c 89 44 24 10       	mov    %r8,0x10(%rsp)
  405997:	e8 b4 c9 ff ff       	callq  402350 <syscall@plt>
  40599c:	48 83 c4 78          	add    $0x78,%rsp
  4059a0:	c3                   	retq   
  4059a1:	66 66 2e 0f 1f 84 00 	data16 nopw %cs:0x0(%rax,%rax,1)
  4059a8:	00 00 00 00 
  4059ac:	0f 1f 40 00          	nopl   0x0(%rax)

00000000004059b0 <bpf_map_delete_elem>:
  4059b0:	48 83 ec 78          	sub    $0x78,%rsp
  4059b4:	41 89 f8             	mov    %edi,%r8d
  4059b7:	31 c0                	xor    %eax,%eax
  4059b9:	b9 0e 00 00 00       	mov    $0xe,%ecx
  4059be:	48 89 e2             	mov    %rsp,%rdx
  4059c1:	48 89 d7             	mov    %rdx,%rdi
  4059c4:	f3 48 ab             	rep stos %rax,%es:(%rdi)
  4059c7:	48 89 74 24 08       	mov    %rsi,0x8(%rsp)
  4059cc:	b9 70 00 00 00       	mov    $0x70,%ecx
  4059d1:	be 03 00 00 00       	mov    $0x3,%esi
  4059d6:	bf 41 01 00 00       	mov    $0x141,%edi
  4059db:	44 89 04 24          	mov    %r8d,(%rsp)
  4059df:	e8 6c c9 ff ff       	callq  402350 <syscall@plt>
  4059e4:	48 83 c4 78          	add    $0x78,%rsp
  4059e8:	c3                   	retq   
  4059e9:	0f 1f 80 00 00 00 00 	nopl   0x0(%rax)

00000000004059f0 <bpf_map_get_next_key>:
  4059f0:	48 83 ec 78          	sub    $0x78,%rsp
  4059f4:	49 89 d0             	mov    %rdx,%r8
  4059f7:	41 89 f9             	mov    %edi,%r9d
  4059fa:	31 c0                	xor    %eax,%eax
  4059fc:	48 89 e2             	mov    %rsp,%rdx
  4059ff:	b9 0e 00 00 00       	mov    $0xe,%ecx
  405a04:	48 89 d7             	mov    %rdx,%rdi
  405a07:	f3 48 ab             	rep stos %rax,%es:(%rdi)
  405a0a:	48 89 74 24 08       	mov    %rsi,0x8(%rsp)
  405a0f:	b9 70 00 00 00       	mov    $0x70,%ecx
  405a14:	be 04 00 00 00       	mov    $0x4,%esi
  405a19:	bf 41 01 00 00       	mov    $0x141,%edi
  405a1e:	44 89 0c 24          	mov    %r9d,(%rsp)
  405a22:	4c 89 44 24 10       	mov    %r8,0x10(%rsp)
  405a27:	e8 24 c9 ff ff       	callq  402350 <syscall@plt>
  405a2c:	48 83 c4 78          	add    $0x78,%rsp
  405a30:	c3                   	retq   
  405a31:	66 66 2e 0f 1f 84 00 	data16 nopw %cs:0x0(%rax,%rax,1)
  405a38:	00 00 00 00 
  405a3c:	0f 1f 40 00          	nopl   0x0(%rax)

0000000000405a40 <bpf_map_freeze>:
  405a40:	48 83 ec 78          	sub    $0x78,%rsp
  405a44:	41 89 f8             	mov    %edi,%r8d
  405a47:	31 c0                	xor    %eax,%eax
  405a49:	b9 0e 00 00 00       	mov    $0xe,%ecx
  405a4e:	48 89 e2             	mov    %rsp,%rdx
  405a51:	be 16 00 00 00       	mov    $0x16,%esi
  405a56:	48 89 d7             	mov    %rdx,%rdi
  405a59:	f3 48 ab             	rep stos %rax,%es:(%rdi)
  405a5c:	b9 70 00 00 00       	mov    $0x70,%ecx
  405a61:	bf 41 01 00 00       	mov    $0x141,%edi
  405a66:	44 89 04 24          	mov    %r8d,(%rsp)
  405a6a:	e8 e1 c8 ff ff       	callq  402350 <syscall@plt>
  405a6f:	48 83 c4 78          	add    $0x78,%rsp
  405a73:	c3                   	retq   
  405a74:	66 66 2e 0f 1f 84 00 	data16 nopw %cs:0x0(%rax,%rax,1)
  405a7b:	00 00 00 00 
  405a7f:	90                   	nop

0000000000405a80 <bpf_obj_pin>:
  405a80:	48 83 ec 78          	sub    $0x78,%rsp
  405a84:	41 89 f8             	mov    %edi,%r8d
  405a87:	31 c0                	xor    %eax,%eax
  405a89:	b9 0d 00 00 00       	mov    $0xd,%ecx
  405a8e:	48 8d 54 24 08       	lea    0x8(%rsp),%rdx
  405a93:	48 89 34 24          	mov    %rsi,(%rsp)
  405a97:	be 06 00 00 00       	mov    $0x6,%esi
  405a9c:	48 89 d7             	mov    %rdx,%rdi
  405a9f:	48 89 e2             	mov    %rsp,%rdx
  405aa2:	f3 48 ab             	rep stos %rax,%es:(%rdi)
  405aa5:	b9 70 00 00 00       	mov    $0x70,%ecx
  405aaa:	bf 41 01 00 00       	mov    $0x141,%edi
  405aaf:	44 89 44 24 08       	mov    %r8d,0x8(%rsp)
  405ab4:	e8 97 c8 ff ff       	callq  402350 <syscall@plt>
  405ab9:	48 83 c4 78          	add    $0x78,%rsp
  405abd:	c3                   	retq   
  405abe:	66 90                	xchg   %ax,%ax

0000000000405ac0 <bpf_obj_get>:
  405ac0:	48 83 ec 78          	sub    $0x78,%rsp
  405ac4:	49 89 f8             	mov    %rdi,%r8
  405ac7:	31 c0                	xor    %eax,%eax
  405ac9:	b9 0d 00 00 00       	mov    $0xd,%ecx
  405ace:	48 8d 54 24 08       	lea    0x8(%rsp),%rdx
  405ad3:	be 07 00 00 00       	mov    $0x7,%esi
  405ad8:	4c 89 04 24          	mov    %r8,(%rsp)
  405adc:	48 89 d7             	mov    %rdx,%rdi
  405adf:	48 89 e2             	mov    %rsp,%rdx
  405ae2:	f3 48 ab             	rep stos %rax,%es:(%rdi)
  405ae5:	b9 70 00 00 00       	mov    $0x70,%ecx
  405aea:	bf 41 01 00 00       	mov    $0x141,%edi
  405aef:	e8 5c c8 ff ff       	callq  402350 <syscall@plt>
  405af4:	48 83 c4 78          	add    $0x78,%rsp
  405af8:	c3                   	retq   
  405af9:	0f 1f 80 00 00 00 00 	nopl   0x0(%rax)

0000000000405b00 <bpf_prog_attach>:
  405b00:	48 83 ec 78          	sub    $0x78,%rsp
  405b04:	41 89 d1             	mov    %edx,%r9d
  405b07:	41 89 fa             	mov    %edi,%r10d
  405b0a:	41 89 c8             	mov    %ecx,%r8d
  405b0d:	48 8d 54 24 10       	lea    0x10(%rsp),%rdx
  405b12:	31 c0                	xor    %eax,%eax
  405b14:	b9 0c 00 00 00       	mov    $0xc,%ecx
  405b19:	89 34 24             	mov    %esi,(%rsp)
  405b1c:	48 89 d7             	mov    %rdx,%rdi
  405b1f:	be 08 00 00 00       	mov    $0x8,%esi
  405b24:	48 89 e2             	mov    %rsp,%rdx
  405b27:	44 89 54 24 04       	mov    %r10d,0x4(%rsp)
  405b2c:	f3 48 ab             	rep stos %rax,%es:(%rdi)
  405b2f:	b9 70 00 00 00       	mov    $0x70,%ecx
  405b34:	bf 41 01 00 00       	mov    $0x141,%edi
  405b39:	44 89 4c 24 08       	mov    %r9d,0x8(%rsp)
  405b3e:	44 89 44 24 0c       	mov    %r8d,0xc(%rsp)
  405b43:	e8 08 c8 ff ff       	callq  402350 <syscall@plt>
  405b48:	48 83 c4 78          	add    $0x78,%rsp
  405b4c:	c3                   	retq   
  405b4d:	0f 1f 00             	nopl   (%rax)

0000000000405b50 <bpf_prog_detach>:
  405b50:	48 83 ec 78          	sub    $0x78,%rsp
  405b54:	41 89 f8             	mov    %edi,%r8d
  405b57:	31 c0                	xor    %eax,%eax
  405b59:	b9 0e 00 00 00       	mov    $0xe,%ecx
  405b5e:	48 89 e2             	mov    %rsp,%rdx
  405b61:	48 89 d7             	mov    %rdx,%rdi
  405b64:	f3 48 ab             	rep stos %rax,%es:(%rdi)
  405b67:	89 74 24 08          	mov    %esi,0x8(%rsp)
  405b6b:	b9 70 00 00 00       	mov    $0x70,%ecx
  405b70:	be 09 00 00 00       	mov    $0x9,%esi
  405b75:	bf 41 01 00 00       	mov    $0x141,%edi
  405b7a:	44 89 04 24          	mov    %r8d,(%rsp)
  405b7e:	e8 cd c7 ff ff       	callq  402350 <syscall@plt>
  405b83:	48 83 c4 78          	add    $0x78,%rsp
  405b87:	c3                   	retq   
  405b88:	0f 1f 84 00 00 00 00 	nopl   0x0(%rax,%rax,1)
  405b8f:	00 

0000000000405b90 <bpf_prog_detach2>:
  405b90:	48 83 ec 78          	sub    $0x78,%rsp
  405b94:	41 89 d0             	mov    %edx,%r8d
  405b97:	41 89 f9             	mov    %edi,%r9d
  405b9a:	31 c0                	xor    %eax,%eax
  405b9c:	48 8d 54 24 08       	lea    0x8(%rsp),%rdx
  405ba1:	b9 0d 00 00 00       	mov    $0xd,%ecx
  405ba6:	89 34 24             	mov    %esi,(%rsp)
  405ba9:	be 09 00 00 00       	mov    $0x9,%esi
  405bae:	48 89 d7             	mov    %rdx,%rdi
  405bb1:	48 89 e2             	mov    %rsp,%rdx
  405bb4:	44 89 4c 24 04       	mov    %r9d,0x4(%rsp)
  405bb9:	f3 48 ab             	rep stos %rax,%es:(%rdi)
  405bbc:	b9 70 00 00 00       	mov    $0x70,%ecx
  405bc1:	bf 41 01 00 00       	mov    $0x141,%edi
  405bc6:	44 89 44 24 08       	mov    %r8d,0x8(%rsp)
  405bcb:	e8 80 c7 ff ff       	callq  402350 <syscall@plt>
  405bd0:	48 83 c4 78          	add    $0x78,%rsp
  405bd4:	c3                   	retq   
  405bd5:	66 66 2e 0f 1f 84 00 	data16 nopw %cs:0x0(%rax,%rax,1)
  405bdc:	00 00 00 00 

0000000000405be0 <bpf_prog_query>:
  405be0:	55                   	push   %rbp
  405be1:	41 89 d2             	mov    %edx,%r10d
  405be4:	31 c0                	xor    %eax,%eax
  405be6:	41 89 fb             	mov    %edi,%r11d
  405be9:	53                   	push   %rbx
  405bea:	48 89 cd             	mov    %rcx,%rbp
  405bed:	b9 0d 00 00 00       	mov    $0xd,%ecx
  405bf2:	4c 89 cb             	mov    %r9,%rbx
  405bf5:	48 83 ec 78          	sub    $0x78,%rsp
  405bf9:	48 8d 54 24 08       	lea    0x8(%rsp),%rdx
  405bfe:	89 74 24 04          	mov    %esi,0x4(%rsp)
  405c02:	be 10 00 00 00       	mov    $0x10,%esi
  405c07:	48 89 d7             	mov    %rdx,%rdi
  405c0a:	48 89 e2             	mov    %rsp,%rdx
  405c0d:	44 89 1c 24          	mov    %r11d,(%rsp)
  405c11:	f3 48 ab             	rep stos %rax,%es:(%rdi)
  405c14:	41 8b 01             	mov    (%r9),%eax
  405c17:	b9 70 00 00 00       	mov    $0x70,%ecx
  405c1c:	bf 41 01 00 00       	mov    $0x141,%edi
  405c21:	44 89 54 24 08       	mov    %r10d,0x8(%rsp)
  405c26:	89 44 24 18          	mov    %eax,0x18(%rsp)
  405c2a:	31 c0                	xor    %eax,%eax
  405c2c:	4c 89 44 24 10       	mov    %r8,0x10(%rsp)
  405c31:	e8 1a c7 ff ff       	callq  402350 <syscall@plt>
  405c36:	48 85 ed             	test   %rbp,%rbp
  405c39:	74 07                	je     405c42 <bpf_prog_query+0x62>
  405c3b:	8b 54 24 0c          	mov    0xc(%rsp),%edx
  405c3f:	89 55 00             	mov    %edx,0x0(%rbp)
  405c42:	8b 54 24 18          	mov    0x18(%rsp),%edx
  405c46:	89 13                	mov    %edx,(%rbx)
  405c48:	48 83 c4 78          	add    $0x78,%rsp
  405c4c:	5b                   	pop    %rbx
  405c4d:	5d                   	pop    %rbp
  405c4e:	c3                   	retq   
  405c4f:	90                   	nop

0000000000405c50 <bpf_prog_test_run>:
  405c50:	41 55                	push   %r13
  405c52:	49 89 d5             	mov    %rdx,%r13
  405c55:	41 89 fb             	mov    %edi,%r11d
  405c58:	41 89 ca             	mov    %ecx,%r10d
  405c5b:	41 54                	push   %r12
  405c5d:	31 c0                	xor    %eax,%eax
  405c5f:	b9 0e 00 00 00       	mov    $0xe,%ecx
  405c64:	55                   	push   %rbp
  405c65:	53                   	push   %rbx
  405c66:	4c 89 cb             	mov    %r9,%rbx
  405c69:	48 83 ec 78          	sub    $0x78,%rsp
  405c6d:	48 89 e2             	mov    %rsp,%rdx
  405c70:	4c 8b a4 24 a0 00 00 	mov    0xa0(%rsp),%r12
  405c77:	00 
  405c78:	48 8b ac 24 a8 00 00 	mov    0xa8(%rsp),%rbp
  405c7f:	00 
  405c80:	48 89 d7             	mov    %rdx,%rdi
  405c83:	f3 48 ab             	rep stos %rax,%es:(%rdi)
  405c86:	89 74 24 20          	mov    %esi,0x20(%rsp)
  405c8a:	b9 70 00 00 00       	mov    $0x70,%ecx
  405c8f:	be 0a 00 00 00       	mov    $0xa,%esi
  405c94:	bf 41 01 00 00       	mov    $0x141,%edi
  405c99:	44 89 1c 24          	mov    %r11d,(%rsp)
  405c9d:	4c 89 6c 24 10       	mov    %r13,0x10(%rsp)
  405ca2:	4c 89 44 24 18       	mov    %r8,0x18(%rsp)
  405ca7:	44 89 54 24 08       	mov    %r10d,0x8(%rsp)
  405cac:	e8 9f c6 ff ff       	callq  402350 <syscall@plt>
  405cb1:	48 85 db             	test   %rbx,%rbx
  405cb4:	74 06                	je     405cbc <bpf_prog_test_run+0x6c>
  405cb6:	8b 54 24 0c          	mov    0xc(%rsp),%edx
  405cba:	89 13                	mov    %edx,(%rbx)
  405cbc:	4d 85 e4             	test   %r12,%r12
  405cbf:	74 08                	je     405cc9 <bpf_prog_test_run+0x79>
  405cc1:	8b 54 24 04          	mov    0x4(%rsp),%edx
  405cc5:	41 89 14 24          	mov    %edx,(%r12)
  405cc9:	48 85 ed             	test   %rbp,%rbp
  405ccc:	74 07                	je     405cd5 <bpf_prog_test_run+0x85>
  405cce:	8b 54 24 24          	mov    0x24(%rsp),%edx
  405cd2:	89 55 00             	mov    %edx,0x0(%rbp)
  405cd5:	48 83 c4 78          	add    $0x78,%rsp
  405cd9:	5b                   	pop    %rbx
  405cda:	5d                   	pop    %rbp
  405cdb:	41 5c                	pop    %r12
  405cdd:	41 5d                	pop    %r13
  405cdf:	c3                   	retq   

0000000000405ce0 <bpf_prog_test_run_xattr>:
  405ce0:	53                   	push   %rbx
  405ce1:	48 89 fb             	mov    %rdi,%rbx
  405ce4:	48 83 ec 70          	sub    $0x70,%rsp
  405ce8:	48 8b 77 18          	mov    0x18(%rdi),%rsi
  405cec:	48 85 f6             	test   %rsi,%rsi
  405cef:	0f 84 93 00 00 00    	je     405d88 <bpf_prog_test_run_xattr+0xa8>
  405cf5:	48 89 e2             	mov    %rsp,%rdx
  405cf8:	31 c0                	xor    %eax,%eax
  405cfa:	b9 0e 00 00 00       	mov    $0xe,%ecx
  405cff:	48 89 d7             	mov    %rdx,%rdi
  405d02:	f3 48 ab             	rep stos %rax,%es:(%rdi)
  405d05:	8b 03                	mov    (%rbx),%eax
  405d07:	48 89 74 24 18       	mov    %rsi,0x18(%rsp)
  405d0c:	b9 70 00 00 00       	mov    $0x70,%ecx
  405d11:	be 0a 00 00 00       	mov    $0xa,%esi
  405d16:	bf 41 01 00 00       	mov    $0x141,%edi
  405d1b:	89 04 24             	mov    %eax,(%rsp)
  405d1e:	48 8b 43 08          	mov    0x8(%rbx),%rax
  405d22:	48 89 44 24 10       	mov    %rax,0x10(%rsp)
  405d27:	8b 43 10             	mov    0x10(%rbx),%eax
  405d2a:	89 44 24 08          	mov    %eax,0x8(%rsp)
  405d2e:	8b 43 20             	mov    0x20(%rbx),%eax
  405d31:	89 44 24 0c          	mov    %eax,0xc(%rsp)
  405d35:	48 8b 43 30          	mov    0x30(%rbx),%rax
  405d39:	48 89 44 24 30       	mov    %rax,0x30(%rsp)
  405d3e:	48 8b 43 40          	mov    0x40(%rbx),%rax
  405d42:	48 89 44 24 38       	mov    %rax,0x38(%rsp)
  405d47:	8b 43 38             	mov    0x38(%rbx),%eax
  405d4a:	89 44 24 28          	mov    %eax,0x28(%rsp)
  405d4e:	8b 43 48             	mov    0x48(%rbx),%eax
  405d51:	89 44 24 2c          	mov    %eax,0x2c(%rsp)
  405d55:	8b 43 04             	mov    0x4(%rbx),%eax
  405d58:	89 44 24 20          	mov    %eax,0x20(%rsp)
  405d5c:	31 c0                	xor    %eax,%eax
  405d5e:	e8 ed c5 ff ff       	callq  402350 <syscall@plt>
  405d63:	8b 54 24 0c          	mov    0xc(%rsp),%edx
  405d67:	89 53 20             	mov    %edx,0x20(%rbx)
  405d6a:	8b 54 24 2c          	mov    0x2c(%rsp),%edx
  405d6e:	89 53 48             	mov    %edx,0x48(%rbx)
  405d71:	8b 54 24 04          	mov    0x4(%rsp),%edx
  405d75:	89 53 24             	mov    %edx,0x24(%rbx)
  405d78:	8b 54 24 24          	mov    0x24(%rsp),%edx
  405d7c:	89 53 28             	mov    %edx,0x28(%rbx)
  405d7f:	48 83 c4 70          	add    $0x70,%rsp
  405d83:	5b                   	pop    %rbx
  405d84:	c3                   	retq   
  405d85:	0f 1f 00             	nopl   (%rax)
  405d88:	8b 47 20             	mov    0x20(%rdi),%eax
  405d8b:	85 c0                	test   %eax,%eax
  405d8d:	0f 84 62 ff ff ff    	je     405cf5 <bpf_prog_test_run_xattr+0x15>
  405d93:	b8 ea ff ff ff       	mov    $0xffffffea,%eax
  405d98:	eb e5                	jmp    405d7f <bpf_prog_test_run_xattr+0x9f>
  405d9a:	66 0f 1f 44 00 00    	nopw   0x0(%rax,%rax,1)

0000000000405da0 <bpf_prog_get_next_id>:
  405da0:	ba 0b 00 00 00       	mov    $0xb,%edx
  405da5:	e9 06 f2 ff ff       	jmpq   404fb0 <bpf_obj_get_next_id>
  405daa:	66 0f 1f 44 00 00    	nopw   0x0(%rax,%rax,1)

0000000000405db0 <bpf_map_get_next_id>:
  405db0:	ba 0c 00 00 00       	mov    $0xc,%edx
  405db5:	e9 f6 f1 ff ff       	jmpq   404fb0 <bpf_obj_get_next_id>
  405dba:	66 0f 1f 44 00 00    	nopw   0x0(%rax,%rax,1)

0000000000405dc0 <bpf_btf_get_next_id>:
  405dc0:	ba 17 00 00 00       	mov    $0x17,%edx
  405dc5:	e9 e6 f1 ff ff       	jmpq   404fb0 <bpf_obj_get_next_id>
  405dca:	66 0f 1f 44 00 00    	nopw   0x0(%rax,%rax,1)

0000000000405dd0 <bpf_prog_get_fd_by_id>:
  405dd0:	48 83 ec 78          	sub    $0x78,%rsp
  405dd4:	41 89 f8             	mov    %edi,%r8d
  405dd7:	31 c0                	xor    %eax,%eax
  405dd9:	b9 0e 00 00 00       	mov    $0xe,%ecx
  405dde:	48 89 e2             	mov    %rsp,%rdx
  405de1:	be 0d 00 00 00       	mov    $0xd,%esi
  405de6:	48 89 d7             	mov    %rdx,%rdi
  405de9:	f3 48 ab             	rep stos %rax,%es:(%rdi)
  405dec:	b9 70 00 00 00       	mov    $0x70,%ecx
  405df1:	bf 41 01 00 00       	mov    $0x141,%edi
  405df6:	44 89 04 24          	mov    %r8d,(%rsp)
  405dfa:	e8 51 c5 ff ff       	callq  402350 <syscall@plt>
  405dff:	48 83 c4 78          	add    $0x78,%rsp
  405e03:	c3                   	retq   
  405e04:	66 66 2e 0f 1f 84 00 	data16 nopw %cs:0x0(%rax,%rax,1)
  405e0b:	00 00 00 00 
  405e0f:	90                   	nop

0000000000405e10 <bpf_map_get_fd_by_id>:
  405e10:	48 83 ec 78          	sub    $0x78,%rsp
  405e14:	41 89 f8             	mov    %edi,%r8d
  405e17:	31 c0                	xor    %eax,%eax
  405e19:	b9 0e 00 00 00       	mov    $0xe,%ecx
  405e1e:	48 89 e2             	mov    %rsp,%rdx
  405e21:	be 0e 00 00 00       	mov    $0xe,%esi
  405e26:	48 89 d7             	mov    %rdx,%rdi
  405e29:	f3 48 ab             	rep stos %rax,%es:(%rdi)
  405e2c:	b9 70 00 00 00       	mov    $0x70,%ecx
  405e31:	bf 41 01 00 00       	mov    $0x141,%edi
  405e36:	44 89 04 24          	mov    %r8d,(%rsp)
  405e3a:	e8 11 c5 ff ff       	callq  402350 <syscall@plt>
  405e3f:	48 83 c4 78          	add    $0x78,%rsp
  405e43:	c3                   	retq   
  405e44:	66 66 2e 0f 1f 84 00 	data16 nopw %cs:0x0(%rax,%rax,1)
  405e4b:	00 00 00 00 
  405e4f:	90                   	nop

0000000000405e50 <bpf_btf_get_fd_by_id>:
  405e50:	48 83 ec 78          	sub    $0x78,%rsp
  405e54:	41 89 f8             	mov    %edi,%r8d
  405e57:	31 c0                	xor    %eax,%eax
  405e59:	b9 0e 00 00 00       	mov    $0xe,%ecx
  405e5e:	48 89 e2             	mov    %rsp,%rdx
  405e61:	be 13 00 00 00       	mov    $0x13,%esi
  405e66:	48 89 d7             	mov    %rdx,%rdi
  405e69:	f3 48 ab             	rep stos %rax,%es:(%rdi)
  405e6c:	b9 70 00 00 00       	mov    $0x70,%ecx
  405e71:	bf 41 01 00 00       	mov    $0x141,%edi
  405e76:	44 89 04 24          	mov    %r8d,(%rsp)
  405e7a:	e8 d1 c4 ff ff       	callq  402350 <syscall@plt>
  405e7f:	48 83 c4 78          	add    $0x78,%rsp
  405e83:	c3                   	retq   
  405e84:	66 66 2e 0f 1f 84 00 	data16 nopw %cs:0x0(%rax,%rax,1)
  405e8b:	00 00 00 00 
  405e8f:	90                   	nop

0000000000405e90 <bpf_obj_get_info_by_fd>:
  405e90:	53                   	push   %rbx
  405e91:	48 89 d3             	mov    %rdx,%rbx
  405e94:	31 c0                	xor    %eax,%eax
  405e96:	41 89 f8             	mov    %edi,%r8d
  405e99:	b9 0c 00 00 00       	mov    $0xc,%ecx
  405e9e:	48 83 ec 70          	sub    $0x70,%rsp
  405ea2:	48 8d 54 24 10       	lea    0x10(%rsp),%rdx
  405ea7:	48 89 74 24 08       	mov    %rsi,0x8(%rsp)
  405eac:	be 0f 00 00 00       	mov    $0xf,%esi
  405eb1:	48 89 d7             	mov    %rdx,%rdi
  405eb4:	48 89 e2             	mov    %rsp,%rdx
  405eb7:	44 89 04 24          	mov    %r8d,(%rsp)
  405ebb:	f3 48 ab             	rep stos %rax,%es:(%rdi)
  405ebe:	8b 03                	mov    (%rbx),%eax
  405ec0:	b9 70 00 00 00       	mov    $0x70,%ecx
  405ec5:	bf 41 01 00 00       	mov    $0x141,%edi
  405eca:	89 44 24 04          	mov    %eax,0x4(%rsp)
  405ece:	31 c0                	xor    %eax,%eax
  405ed0:	e8 7b c4 ff ff       	callq  402350 <syscall@plt>
  405ed5:	85 c0                	test   %eax,%eax
  405ed7:	75 06                	jne    405edf <bpf_obj_get_info_by_fd+0x4f>
  405ed9:	8b 54 24 04          	mov    0x4(%rsp),%edx
  405edd:	89 13                	mov    %edx,(%rbx)
  405edf:	48 83 c4 70          	add    $0x70,%rsp
  405ee3:	5b                   	pop    %rbx
  405ee4:	c3                   	retq   
  405ee5:	66 66 2e 0f 1f 84 00 	data16 nopw %cs:0x0(%rax,%rax,1)
  405eec:	00 00 00 00 

0000000000405ef0 <bpf_raw_tracepoint_open>:
  405ef0:	48 83 ec 78          	sub    $0x78,%rsp
  405ef4:	49 89 f8             	mov    %rdi,%r8
  405ef7:	31 c0                	xor    %eax,%eax
  405ef9:	b9 0d 00 00 00       	mov    $0xd,%ecx
  405efe:	48 8d 54 24 08       	lea    0x8(%rsp),%rdx
  405f03:	4c 89 04 24          	mov    %r8,(%rsp)
  405f07:	48 89 d7             	mov    %rdx,%rdi
  405f0a:	48 89 e2             	mov    %rsp,%rdx
  405f0d:	f3 48 ab             	rep stos %rax,%es:(%rdi)
  405f10:	89 74 24 08          	mov    %esi,0x8(%rsp)
  405f14:	b9 70 00 00 00       	mov    $0x70,%ecx
  405f19:	be 11 00 00 00       	mov    $0x11,%esi
  405f1e:	bf 41 01 00 00       	mov    $0x141,%edi
  405f23:	e8 28 c4 ff ff       	callq  402350 <syscall@plt>
  405f28:	48 83 c4 78          	add    $0x78,%rsp
  405f2c:	c3                   	retq   
  405f2d:	0f 1f 00             	nopl   (%rax)

0000000000405f30 <bpf_load_btf>:
  405f30:	41 55                	push   %r13
  405f32:	41 89 cd             	mov    %ecx,%r13d
  405f35:	31 c0                	xor    %eax,%eax
  405f37:	49 89 f9             	mov    %rdi,%r9
  405f3a:	41 54                	push   %r12
  405f3c:	b9 0d 00 00 00       	mov    $0xd,%ecx
  405f41:	49 89 d4             	mov    %rdx,%r12
  405f44:	55                   	push   %rbp
  405f45:	53                   	push   %rbx
  405f46:	44 89 c3             	mov    %r8d,%ebx
  405f49:	48 83 ec 78          	sub    $0x78,%rsp
  405f4d:	45 85 ed             	test   %r13d,%r13d
  405f50:	40 0f 95 c5          	setne  %bpl
  405f54:	48 8d 7c 24 08       	lea    0x8(%rsp),%rdi
  405f59:	48 85 d2             	test   %rdx,%rdx
  405f5c:	4c 89 0c 24          	mov    %r9,(%rsp)
  405f60:	f3 48 ab             	rep stos %rax,%es:(%rdi)
  405f63:	0f 95 c0             	setne  %al
  405f66:	89 74 24 10          	mov    %esi,0x10(%rsp)
  405f6a:	21 c5                	and    %eax,%ebp
  405f6c:	84 db                	test   %bl,%bl
  405f6e:	74 08                	je     405f78 <bpf_load_btf+0x48>
  405f70:	40 84 ed             	test   %bpl,%bpl
  405f73:	75 39                	jne    405fae <bpf_load_btf+0x7e>
  405f75:	0f 1f 00             	nopl   (%rax)
  405f78:	b9 70 00 00 00       	mov    $0x70,%ecx
  405f7d:	48 89 e2             	mov    %rsp,%rdx
  405f80:	be 12 00 00 00       	mov    $0x12,%esi
  405f85:	31 c0                	xor    %eax,%eax
  405f87:	bf 41 01 00 00       	mov    $0x141,%edi
  405f8c:	e8 bf c3 ff ff       	callq  402350 <syscall@plt>
  405f91:	41 89 c0             	mov    %eax,%r8d
  405f94:	83 f8 ff             	cmp    $0xffffffff,%eax
  405f97:	75 43                	jne    405fdc <bpf_load_btf+0xac>
  405f99:	80 fb 01             	cmp    $0x1,%bl
  405f9c:	74 3e                	je     405fdc <bpf_load_btf+0xac>
  405f9e:	40 84 ed             	test   %bpl,%bpl
  405fa1:	74 4d                	je     405ff0 <bpf_load_btf+0xc0>
  405fa3:	89 eb                	mov    %ebp,%ebx
  405fa5:	84 db                	test   %bl,%bl
  405fa7:	74 cf                	je     405f78 <bpf_load_btf+0x48>
  405fa9:	40 84 ed             	test   %bpl,%bpl
  405fac:	74 ca                	je     405f78 <bpf_load_btf+0x48>
  405fae:	b9 70 00 00 00       	mov    $0x70,%ecx
  405fb3:	48 89 e2             	mov    %rsp,%rdx
  405fb6:	be 12 00 00 00       	mov    $0x12,%esi
  405fbb:	31 c0                	xor    %eax,%eax
  405fbd:	bf 41 01 00 00       	mov    $0x141,%edi
  405fc2:	c7 44 24 18 01 00 00 	movl   $0x1,0x18(%rsp)
  405fc9:	00 
  405fca:	44 89 6c 24 14       	mov    %r13d,0x14(%rsp)
  405fcf:	4c 89 64 24 08       	mov    %r12,0x8(%rsp)
  405fd4:	e8 77 c3 ff ff       	callq  402350 <syscall@plt>
  405fd9:	41 89 c0             	mov    %eax,%r8d
  405fdc:	48 83 c4 78          	add    $0x78,%rsp
  405fe0:	44 89 c0             	mov    %r8d,%eax
  405fe3:	5b                   	pop    %rbx
  405fe4:	5d                   	pop    %rbp
  405fe5:	41 5c                	pop    %r12
  405fe7:	41 5d                	pop    %r13
  405fe9:	c3                   	retq   
  405fea:	66 0f 1f 44 00 00    	nopw   0x0(%rax,%rax,1)
  405ff0:	48 83 c4 78          	add    $0x78,%rsp
  405ff4:	41 b8 ff ff ff ff    	mov    $0xffffffff,%r8d
  405ffa:	5b                   	pop    %rbx
  405ffb:	44 89 c0             	mov    %r8d,%eax
  405ffe:	5d                   	pop    %rbp
  405fff:	41 5c                	pop    %r12
  406001:	41 5d                	pop    %r13
  406003:	c3                   	retq   
  406004:	66 66 2e 0f 1f 84 00 	data16 nopw %cs:0x0(%rax,%rax,1)
  40600b:	00 00 00 00 
  40600f:	90                   	nop

0000000000406010 <bpf_task_fd_query>:
  406010:	55                   	push   %rbp
  406011:	41 89 fb             	mov    %edi,%r11d
  406014:	49 89 ca             	mov    %rcx,%r10
  406017:	31 c0                	xor    %eax,%eax
  406019:	53                   	push   %rbx
  40601a:	b9 0b 00 00 00       	mov    $0xb,%ecx
  40601f:	4c 89 c3             	mov    %r8,%rbx
  406022:	4c 89 cd             	mov    %r9,%rbp
  406025:	48 83 ec 78          	sub    $0x78,%rsp
  406029:	48 8d 7c 24 18       	lea    0x18(%rsp),%rdi
  40602e:	89 74 24 04          	mov    %esi,0x4(%rsp)
  406032:	be 14 00 00 00       	mov    $0x14,%esi
  406037:	f3 48 ab             	rep stos %rax,%es:(%rdi)
  40603a:	41 8b 00             	mov    (%r8),%eax
  40603d:	89 54 24 08          	mov    %edx,0x8(%rsp)
  406041:	b9 70 00 00 00       	mov    $0x70,%ecx
  406046:	48 89 e2             	mov    %rsp,%rdx
  406049:	bf 41 01 00 00       	mov    $0x141,%edi
  40604e:	44 89 1c 24          	mov    %r11d,(%rsp)
  406052:	89 44 24 0c          	mov    %eax,0xc(%rsp)
  406056:	31 c0                	xor    %eax,%eax
  406058:	4c 89 54 24 10       	mov    %r10,0x10(%rsp)
  40605d:	e8 ee c2 ff ff       	callq  402350 <syscall@plt>
  406062:	8b 54 24 0c          	mov    0xc(%rsp),%edx
  406066:	8b 4c 24 1c          	mov    0x1c(%rsp),%ecx
  40606a:	89 13                	mov    %edx,(%rbx)
  40606c:	8b 54 24 18          	mov    0x18(%rsp),%edx
  406070:	89 55 00             	mov    %edx,0x0(%rbp)
  406073:	48 8b 94 24 90 00 00 	mov    0x90(%rsp),%rdx
  40607a:	00 
  40607b:	89 0a                	mov    %ecx,(%rdx)
  40607d:	48 8b 94 24 98 00 00 	mov    0x98(%rsp),%rdx
  406084:	00 
  406085:	48 8b 4c 24 20       	mov    0x20(%rsp),%rcx
  40608a:	48 89 0a             	mov    %rcx,(%rdx)
  40608d:	48 8b 94 24 a0 00 00 	mov    0xa0(%rsp),%rdx
  406094:	00 
  406095:	48 8b 4c 24 28       	mov    0x28(%rsp),%rcx
  40609a:	48 89 0a             	mov    %rcx,(%rdx)
  40609d:	48 83 c4 78          	add    $0x78,%rsp
  4060a1:	5b                   	pop    %rbx
  4060a2:	5d                   	pop    %rbp
  4060a3:	c3                   	retq   
  4060a4:	66 2e 0f 1f 84 00 00 	nopw   %cs:0x0(%rax,%rax,1)
  4060ab:	00 00 00 
  4060ae:	66 90                	xchg   %ax,%ax

00000000004060b0 <compare_bpf_map>:
  4060b0:	8b 47 10             	mov    0x10(%rdi),%eax
  4060b3:	8b 56 10             	mov    0x10(%rsi),%edx
  4060b6:	39 d0                	cmp    %edx,%eax
  4060b8:	74 06                	je     4060c0 <compare_bpf_map+0x10>
  4060ba:	29 d0                	sub    %edx,%eax
  4060bc:	c3                   	retq   
  4060bd:	0f 1f 00             	nopl   (%rax)
  4060c0:	48 8b 47 18          	mov    0x18(%rdi),%rax
  4060c4:	2b 46 18             	sub    0x18(%rsi),%eax
  4060c7:	c3                   	retq   
  4060c8:	0f 1f 84 00 00 00 00 	nopl   0x0(%rax,%rax,1)
  4060cf:	00 

00000000004060d0 <bpf_core_hash_fn>:
  4060d0:	48 89 f8             	mov    %rdi,%rax
  4060d3:	c3                   	retq   
  4060d4:	66 66 2e 0f 1f 84 00 	data16 nopw %cs:0x0(%rax,%rax,1)
  4060db:	00 00 00 00 
  4060df:	90                   	nop

00000000004060e0 <bpf_core_equal_fn>:
  4060e0:	48 39 fe             	cmp    %rdi,%rsi
  4060e3:	0f 94 c0             	sete   %al
  4060e6:	c3                   	retq   
  4060e7:	66 0f 1f 84 00 00 00 	nopw   0x0(%rax,%rax,1)
  4060ee:	00 00 

00000000004060f0 <bpf_link__destroy_fd>:
  4060f0:	8b 7f 08             	mov    0x8(%rdi),%edi
  4060f3:	e9 c8 c1 ff ff       	jmpq   4022c0 <close@plt>
  4060f8:	0f 1f 84 00 00 00 00 	nopl   0x0(%rax,%rax,1)
  4060ff:	00 

0000000000406100 <bpf_core_essential_name_len>:
  406100:	53                   	push   %rbx
  406101:	48 89 fb             	mov    %rdi,%rbx
  406104:	e8 b7 c0 ff ff       	callq  4021c0 <strlen@plt>
  406109:	89 c2                	mov    %eax,%edx
  40610b:	83 ea 05             	sub    $0x5,%edx
  40610e:	78 3a                	js     40614a <bpf_core_essential_name_len+0x4a>
  406110:	48 63 d2             	movslq %edx,%rdx
  406113:	eb 0b                	jmp    406120 <bpf_core_essential_name_len+0x20>
  406115:	0f 1f 00             	nopl   (%rax)
  406118:	48 83 ea 01          	sub    $0x1,%rdx
  40611c:	85 d2                	test   %edx,%edx
  40611e:	78 2a                	js     40614a <bpf_core_essential_name_len+0x4a>
  406120:	80 3c 13 5f          	cmpb   $0x5f,(%rbx,%rdx,1)
  406124:	89 d1                	mov    %edx,%ecx
  406126:	74 f0                	je     406118 <bpf_core_essential_name_len+0x18>
  406128:	80 7c 13 01 5f       	cmpb   $0x5f,0x1(%rbx,%rdx,1)
  40612d:	75 e9                	jne    406118 <bpf_core_essential_name_len+0x18>
  40612f:	80 7c 13 02 5f       	cmpb   $0x5f,0x2(%rbx,%rdx,1)
  406134:	75 e2                	jne    406118 <bpf_core_essential_name_len+0x18>
  406136:	80 7c 13 03 5f       	cmpb   $0x5f,0x3(%rbx,%rdx,1)
  40613b:	75 db                	jne    406118 <bpf_core_essential_name_len+0x18>
  40613d:	80 7c 13 04 5f       	cmpb   $0x5f,0x4(%rbx,%rdx,1)
  406142:	74 d4                	je     406118 <bpf_core_essential_name_len+0x18>
  406144:	83 c1 01             	add    $0x1,%ecx
  406147:	48 63 c1             	movslq %ecx,%rax
  40614a:	5b                   	pop    %rbx
  40614b:	c3                   	retq   
  40614c:	0f 1f 40 00          	nopl   0x0(%rax)

0000000000406150 <bpf_object__probe_btf_datasec>:
  406150:	53                   	push   %rbx
  406151:	b9 09 00 00 00       	mov    $0x9,%ecx
  406156:	48 89 fb             	mov    %rdi,%rbx
  406159:	be 38 00 00 00       	mov    $0x38,%esi
  40615e:	48 b8 00 78 00 2e 64 	movabs $0x617461642e007800,%rax
  406165:	61 74 61 
  406168:	48 83 ec 50          	sub    $0x50,%rsp
  40616c:	48 89 44 24 07       	mov    %rax,0x7(%rsp)
  406171:	48 8d 7c 24 10       	lea    0x10(%rsp),%rdi
  406176:	48 8d 54 24 07       	lea    0x7(%rsp),%rdx
  40617b:	48 b8 00 00 00 00 00 	movabs $0x100000000000000,%rax
  406182:	00 00 01 
  406185:	48 89 44 24 10       	mov    %rax,0x10(%rsp)
  40618a:	48 b8 04 00 00 00 20 	movabs $0x100002000000004,%rax
  406191:	00 00 01 
  406194:	48 89 44 24 18       	mov    %rax,0x18(%rsp)
  406199:	48 b8 01 00 00 00 00 	movabs $0xe00000000000001,%rax
  4061a0:	00 00 0e 
  4061a3:	48 89 44 24 20       	mov    %rax,0x20(%rsp)
  4061a8:	48 b8 03 00 00 00 01 	movabs $0xf00000100000003,%rax
  4061af:	00 00 0f 
  4061b2:	48 89 44 24 30       	mov    %rax,0x30(%rsp)
  4061b7:	48 b8 04 00 00 00 02 	movabs $0x200000004,%rax
  4061be:	00 00 00 
  4061c1:	48 89 44 24 38       	mov    %rax,0x38(%rsp)
  4061c6:	48 b8 00 00 00 00 04 	movabs $0x400000000,%rax
  4061cd:	00 00 00 
  4061d0:	c6 44 24 0f 00       	movb   $0x0,0xf(%rsp)
  4061d5:	48 c7 44 24 28 01 00 	movq   $0x1,0x28(%rsp)
  4061dc:	00 00 
  4061de:	48 89 44 24 40       	mov    %rax,0x40(%rsp)
  4061e3:	e8 18 ad 00 00       	callq  410f00 <libbpf__load_raw_btf>
  4061e8:	89 c7                	mov    %eax,%edi
  4061ea:	31 c0                	xor    %eax,%eax
  4061ec:	85 ff                	test   %edi,%edi
  4061ee:	79 10                	jns    406200 <bpf_object__probe_btf_datasec+0xb0>
  4061f0:	48 83 c4 50          	add    $0x50,%rsp
  4061f4:	5b                   	pop    %rbx
  4061f5:	c3                   	retq   
  4061f6:	66 2e 0f 1f 84 00 00 	nopw   %cs:0x0(%rax,%rax,1)
  4061fd:	00 00 00 
  406200:	80 8b 78 01 00 00 08 	orb    $0x8,0x178(%rbx)
  406207:	e8 b4 c0 ff ff       	callq  4022c0 <close@plt>
  40620c:	48 83 c4 50          	add    $0x50,%rsp
  406210:	b8 01 00 00 00       	mov    $0x1,%eax
  406215:	5b                   	pop    %rbx
  406216:	c3                   	retq   
  406217:	66 0f 1f 84 00 00 00 	nopw   0x0(%rax,%rax,1)
  40621e:	00 00 

0000000000406220 <bpf_object__probe_btf_func>:
  406220:	53                   	push   %rbx
  406221:	b9 09 00 00 00       	mov    $0x9,%ecx
